
connection.elf:     file format elf32-littlenios2
connection.elf
architecture: nios2:r1, flags 0x00000112:
EXEC_P, HAS_SYMS, D_PAGED
start address 0x00000230

Program Header:
    LOAD off    0x00001000 vaddr 0x00000000 paddr 0x00000000 align 2**12
         filesz 0x00000020 memsz 0x00000020 flags r-x
    LOAD off    0x00001020 vaddr 0x00000020 paddr 0x00000020 align 2**12
         filesz 0x000108a0 memsz 0x000108a0 flags r-x
    LOAD off    0x000118c0 vaddr 0x000108c0 paddr 0x000123ac align 2**12
         filesz 0x00001aec memsz 0x00001aec flags rw-
    LOAD off    0x00013e98 vaddr 0x00013e98 paddr 0x00013e98 align 2**12
         filesz 0x00000000 memsz 0x00000174 flags rw-

Sections:
Idx Name          Size      VMA       LMA       File off  Algn
  0 .entry        00000020  00000000  00000000  00001000  2**5
                  CONTENTS, ALLOC, LOAD, READONLY, CODE
  1 .exceptions   00000210  00000020  00000020  00001020  2**2
                  CONTENTS, ALLOC, LOAD, READONLY, CODE
  2 .text         00010320  00000230  00000230  00001230  2**2
                  CONTENTS, ALLOC, LOAD, READONLY, CODE
  3 .rodata       00000370  00010550  00010550  00011550  2**2
                  CONTENTS, ALLOC, LOAD, READONLY, DATA
  4 .rwdata       00001aec  000108c0  000123ac  000118c0  2**2
                  CONTENTS, ALLOC, LOAD, DATA, SMALL_DATA
  5 .bss          00000174  00013e98  00013e98  00013e98  2**2
                  ALLOC, SMALL_DATA
  6 .onchip_mem   00000000  0001400c  0001400c  000133ac  2**0
                  CONTENTS
  7 .comment      00000023  00000000  00000000  000133ac  2**0
                  CONTENTS, READONLY
  8 .debug_aranges 00001048  00000000  00000000  000133d0  2**3
                  CONTENTS, READONLY, DEBUGGING
  9 .debug_info   000278ce  00000000  00000000  00014418  2**0
                  CONTENTS, READONLY, DEBUGGING
 10 .debug_abbrev 00009fa8  00000000  00000000  0003bce6  2**0
                  CONTENTS, READONLY, DEBUGGING
 11 .debug_line   0000c41e  00000000  00000000  00045c8e  2**0
                  CONTENTS, READONLY, DEBUGGING
 12 .debug_frame  00002404  00000000  00000000  000520ac  2**2
                  CONTENTS, READONLY, DEBUGGING
 13 .debug_str    00003af0  00000000  00000000  000544b0  2**0
                  CONTENTS, READONLY, DEBUGGING
 14 .debug_loc    0001816e  00000000  00000000  00057fa0  2**0
                  CONTENTS, READONLY, DEBUGGING
 15 .debug_alt_sim_info 00000040  00000000  00000000  00070110  2**2
                  CONTENTS, READONLY, DEBUGGING
 16 .debug_ranges 000019f0  00000000  00000000  00070150  2**3
                  CONTENTS, READONLY, DEBUGGING
 17 .thread_model 00000003  00000000  00000000  00074e3e  2**0
                  CONTENTS, READONLY
 18 .cpu          00000003  00000000  00000000  00074e41  2**0
                  CONTENTS, READONLY
 19 .qsys         00000001  00000000  00000000  00074e44  2**0
                  CONTENTS, READONLY
 20 .simulation_enabled 00000001  00000000  00000000  00074e45  2**0
                  CONTENTS, READONLY
 21 .stderr_dev   00000009  00000000  00000000  00074e46  2**0
                  CONTENTS, READONLY
 22 .stdin_dev    00000009  00000000  00000000  00074e4f  2**0
                  CONTENTS, READONLY
 23 .stdout_dev   00000009  00000000  00000000  00074e58  2**0
                  CONTENTS, READONLY
 24 .sopc_system_name 00000005  00000000  00000000  00074e61  2**0
                  CONTENTS, READONLY
 25 .quartus_project_dir 0000001c  00000000  00000000  00074e66  2**0
                  CONTENTS, READONLY
 26 .jdi          00003753  00000000  00000000  00074e82  2**0
                  CONTENTS, READONLY
 27 .sopcinfo     0005d1e8  00000000  00000000  000785d5  2**0
                  CONTENTS, READONLY
SYMBOL TABLE:
00000000 l    d  .entry	00000000 .entry
00000020 l    d  .exceptions	00000000 .exceptions
00000230 l    d  .text	00000000 .text
00010550 l    d  .rodata	00000000 .rodata
000108c0 l    d  .rwdata	00000000 .rwdata
00013e98 l    d  .bss	00000000 .bss
0001400c l    d  .onchip_mem	00000000 .onchip_mem
00000000 l    d  .comment	00000000 .comment
00000000 l    d  .debug_aranges	00000000 .debug_aranges
00000000 l    d  .debug_info	00000000 .debug_info
00000000 l    d  .debug_abbrev	00000000 .debug_abbrev
00000000 l    d  .debug_line	00000000 .debug_line
00000000 l    d  .debug_frame	00000000 .debug_frame
00000000 l    d  .debug_str	00000000 .debug_str
00000000 l    d  .debug_loc	00000000 .debug_loc
00000000 l    d  .debug_alt_sim_info	00000000 .debug_alt_sim_info
00000000 l    d  .debug_ranges	00000000 .debug_ranges
00000000 l    df *ABS*	00000000 ../connection_bsp//obj/HAL/src/crt0.o
00000268 l       .text	00000000 alt_after_alt_main
00000000 l    df *ABS*	00000000 alt_irq_handler.c
00000000 l    df *ABS*	00000000 alt_instruction_exception_entry.c
00000000 l    df *ABS*	00000000 hello_world.c
00000000 l    df *ABS*	00000000 lib2-mul.c
00000000 l    df *ABS*	00000000 itoa.c
00000000 l    df *ABS*	00000000 printf.c
00000000 l    df *ABS*	00000000 utoa.c
00000000 l    df *ABS*	00000000 vfprintf.c
0001060e l     O .rodata	00000010 zeroes.4404
000029f0 l     F .text	000000bc __sbprintf
0001061e l     O .rodata	00000010 blanks.4403
00000000 l    df *ABS*	00000000 wsetup.c
00000000 l    df *ABS*	00000000 dtoa.c
00002c00 l     F .text	00000228 quorem
00000000 l    df *ABS*	00000000 fflush.c
00000000 l    df *ABS*	00000000 findfp.c
00004758 l     F .text	00000008 __fp_unlock
0000476c l     F .text	0000019c __sinit.part.1
00004908 l     F .text	00000008 __fp_lock
00000000 l    df *ABS*	00000000 mallocr.c
00000000 l    df *ABS*	00000000 fwalk.c
00000000 l    df *ABS*	00000000 impure.c
000108c0 l     O .rwdata	00000424 impure_data
00000000 l    df *ABS*	00000000 locale.c
00010d04 l     O .rwdata	00000020 lc_ctype_charset
00010ce4 l     O .rwdata	00000020 lc_message_charset
00010d24 l     O .rwdata	00000038 lconv
00000000 l    df *ABS*	00000000 makebuf.c
00000000 l    df *ABS*	00000000 mallocr.c
00000000 l    df *ABS*	00000000 memchr.c
00000000 l    df *ABS*	00000000 memcpy.c
00000000 l    df *ABS*	00000000 memset.c
00000000 l    df *ABS*	00000000 mprec.c
00010650 l     O .rodata	0000000c p05.2768
00000000 l    df *ABS*	00000000 s_fpclassify.c
00000000 l    df *ABS*	00000000 sbrkr.c
00000000 l    df *ABS*	00000000 stdio.c
00000000 l    df *ABS*	00000000 strcmp.c
00000000 l    df *ABS*	00000000 strlen.c
00000000 l    df *ABS*	00000000 vfprintf.c
000072ec l     F .text	000000fc __sprint_r.part.0
00010774 l     O .rodata	00000010 zeroes.4349
00008928 l     F .text	000000bc __sbprintf
00010784 l     O .rodata	00000010 blanks.4348
00000000 l    df *ABS*	00000000 writer.c
00000000 l    df *ABS*	00000000 closer.c
00000000 l    df *ABS*	00000000 mallocr.c
00000000 l    df *ABS*	00000000 fclose.c
00000000 l    df *ABS*	00000000 fputwc.c
00000000 l    df *ABS*	00000000 fstatr.c
00000000 l    df *ABS*	00000000 fvwrite.c
00000000 l    df *ABS*	00000000 int_errno.c
00000000 l    df *ABS*	00000000 isattyr.c
00000000 l    df *ABS*	00000000 lseekr.c
00000000 l    df *ABS*	00000000 memmove.c
00000000 l    df *ABS*	00000000 readr.c
00000000 l    df *ABS*	00000000 mallocr.c
00000000 l    df *ABS*	00000000 wbuf.c
00000000 l    df *ABS*	00000000 wcrtomb.c
00000000 l    df *ABS*	00000000 wctomb_r.c
00000000 l    df *ABS*	00000000 libgcc2.c
00000000 l    df *ABS*	00000000 libgcc2.c
00000000 l    df *ABS*	00000000 lib2-divmod.c
00000000 l    df *ABS*	00000000 adddf3.c
00000000 l    df *ABS*	00000000 divdf3.c
00000000 l    df *ABS*	00000000 eqdf2.c
00000000 l    df *ABS*	00000000 gedf2.c
00000000 l    df *ABS*	00000000 ledf2.c
00000000 l    df *ABS*	00000000 muldf3.c
00000000 l    df *ABS*	00000000 subdf3.c
00000000 l    df *ABS*	00000000 fixdfsi.c
00000000 l    df *ABS*	00000000 floatsidf.c
00000000 l    df *ABS*	00000000 floatunsidf.c
00000000 l    df *ABS*	00000000 libgcc2.c
00000000 l    df *ABS*	00000000 libgcc2.c
00000000 l    df *ABS*	00000000 alt_close.c
0000d4d0 l     F .text	0000003c alt_get_errno
00000000 l    df *ABS*	00000000 alt_dev.c
0000d5e4 l     F .text	0000002c alt_dev_null_write
00000000 l    df *ABS*	00000000 alt_errno.c
00000000 l    df *ABS*	00000000 alt_fstat.c
0000d610 l     F .text	0000003c alt_get_errno
00000000 l    df *ABS*	00000000 alt_getchar.c
00000000 l    df *ABS*	00000000 alt_isatty.c
0000d738 l     F .text	0000003c alt_get_errno
00000000 l    df *ABS*	00000000 alt_load.c
0000d820 l     F .text	00000068 alt_load_section
00000000 l    df *ABS*	00000000 alt_lseek.c
0000d90c l     F .text	0000003c alt_get_errno
00000000 l    df *ABS*	00000000 alt_main.c
00000000 l    df *ABS*	00000000 alt_malloc_lock.c
00000000 l    df *ABS*	00000000 alt_printf.c
00000000 l    df *ABS*	00000000 alt_putchar.c
00000000 l    df *ABS*	00000000 alt_putstr.c
00000000 l    df *ABS*	00000000 alt_read.c
0000dd8c l     F .text	0000003c alt_get_errno
00000000 l    df *ABS*	00000000 alt_release_fd.c
00000000 l    df *ABS*	00000000 alt_sbrk.c
0001239c l     O .rwdata	00000004 heap_end
00000000 l    df *ABS*	00000000 alt_usleep.c
00000000 l    df *ABS*	00000000 alt_write.c
0000e030 l     F .text	0000003c alt_get_errno
00000000 l    df *ABS*	00000000 alt_sys_init.c
0000e16c l     F .text	00000034 alt_dev_reg
0001130c l     O .rwdata	00001060 jtag_uart
00000000 l    df *ABS*	00000000 altera_avalon_jtag_uart_fd.c
00000000 l    df *ABS*	00000000 altera_avalon_jtag_uart_init.c
0000e444 l     F .text	0000020c altera_avalon_jtag_uart_irq
0000e650 l     F .text	000000a0 altera_avalon_jtag_uart_timeout
00000000 l    df *ABS*	00000000 altera_avalon_jtag_uart_ioctl.c
00000000 l    df *ABS*	00000000 altera_avalon_jtag_uart_read.c
00000000 l    df *ABS*	00000000 altera_avalon_jtag_uart_write.c
00000000 l    df *ABS*	00000000 alt_alarm_start.c
00000000 l    df *ABS*	00000000 alt_busy_sleep.c
00000000 l    df *ABS*	00000000 alt_dcache_flush_all.c
00000000 l    df *ABS*	00000000 alt_dev_llist_insert.c
0000ef2c l     F .text	0000003c alt_get_errno
00000000 l    df *ABS*	00000000 alt_do_ctors.c
00000000 l    df *ABS*	00000000 alt_do_dtors.c
00000000 l    df *ABS*	00000000 alt_icache_flush_all.c
00000000 l    df *ABS*	00000000 alt_iic.c
00000000 l    df *ABS*	00000000 alt_iic_isr_register.c
00000000 l    df *ABS*	00000000 alt_io_redirect.c
0000f38c l     F .text	000000e4 alt_open_fd
00000000 l    df *ABS*	00000000 alt_irq_vars.c
00000000 l    df *ABS*	00000000 alt_open.c
0000f4ec l     F .text	0000003c alt_get_errno
0000f528 l     F .text	000000ec alt_file_locked
00000000 l    df *ABS*	00000000 alt_tick.c
00000000 l    df *ABS*	00000000 altera_nios2_gen2_irq.c
00000000 l    df *ABS*	00000000 alt_find_dev.c
00000000 l    df *ABS*	00000000 alt_find_file.c
00000000 l    df *ABS*	00000000 alt_get_fd.c
00000000 l    df *ABS*	00000000 atexit.c
00000000 l    df *ABS*	00000000 exit.c
00000000 l    df *ABS*	00000000 fputs.c
00000000 l    df *ABS*	00000000 getc.c
00000000 l    df *ABS*	00000000 memcmp.c
00000000 l    df *ABS*	00000000 putc.c
00000000 l    df *ABS*	00000000 rget.c
00000000 l    df *ABS*	00000000 __atexit.c
00000000 l    df *ABS*	00000000 __call_atexit.c
00000000 l    df *ABS*	00000000 refill.c
0001032c l     F .text	0000001c lflush
00000000 l    df *ABS*	00000000 alt_exit.c
00013ecc g     O .bss	00000004 alt_instruction_exception_handler
00006dfc g     F .text	00000074 _mprec_log10
00006ee8 g     F .text	0000008c __any_on
000093a4 g     F .text	00000054 _isatty_r
0001065c g     O .rodata	00000028 __mprec_tinytens
0000da24 g     F .text	0000007c alt_main
00013f0c g     O .bss	00000100 alt_irq
000093f8 g     F .text	00000060 _lseek_r
000123ac g       *ABS*	00000000 __flash_rwdata_start
0000bea8 g     F .text	00000088 .hidden __eqdf2
0000026c g     F .text	0000007c stupid
0001400c g       *ABS*	00000000 __alt_heap_start
00000560 g     F .text	0000003c printf
00009cd0 g     F .text	0000009c _wcrtomb_r
00007114 g     F .text	0000005c __sseek
00004ab8 g     F .text	00000010 __sinit
00009b78 g     F .text	00000140 __swbuf_r
000050c4 g     F .text	0000007c _setlocale_r
00004910 g     F .text	00000078 __sfmoreglue
0000dac4 g     F .text	00000024 __malloc_unlock
00009458 g     F .text	0000015c memmove
00004aa0 g     F .text	00000018 _cleanup
00005ebc g     F .text	000000a8 _Balloc
0000dd50 g     F .text	0000003c alt_putstr
0000bf30 g     F .text	000000dc .hidden __gtdf2
0000f914 g     F .text	00000024 altera_nios2_gen2_irq_init
00000000 g     F .entry	0000000c __reset
00000020 g       *ABS*	00000000 __flash_exceptions_start
00008e80 g     F .text	0000005c _fstat_r
00013eb0 g     O .bss	00000004 errno
00010080 g     F .text	00000014 __srget
00007090 g     F .text	00000008 __seofread
00013eb8 g     O .bss	00000004 alt_argv
0001a36c g       *ABS*	00000000 _gp
0000e000 g     F .text	00000030 usleep
0001118c g     O .rwdata	00000180 alt_fd_list
0000fd30 g     F .text	00000070 _getc_r
0000fda0 g     F .text	00000088 getc
0000f938 g     F .text	00000090 alt_find_dev
00005c4c g     F .text	00000148 memcpy
00004760 g     F .text	0000000c _cleanup_r
0000d2e8 g     F .text	000000dc .hidden __floatsidf
0000f470 g     F .text	0000007c alt_io_redirect
0000c00c g     F .text	000000f4 .hidden __ltdf2
00010550 g       *ABS*	00000000 __DTOR_END__
0000fb94 g     F .text	0000009c alt_exception_cause_generated_bad_addr
00006f74 g     F .text	00000074 __fpclassifyd
00006d58 g     F .text	000000a4 __ratio
0000890c g     F .text	0000001c __vfiprintf_internal
0000e848 g     F .text	0000021c altera_avalon_jtag_uart_read
00000530 g     F .text	00000030 _printf_r
0000ab70 g     F .text	00000064 .hidden __udivsi3
0000d774 g     F .text	000000ac isatty
000106ac g     O .rodata	000000c8 __mprec_tens
00005140 g     F .text	0000000c __locale_charset
00013eac g     O .bss	00000004 __malloc_top_pad
00012374 g     O .rwdata	00000004 __mb_cur_max
0000052c g     F .text	00000004 itoa
00005170 g     F .text	0000000c _localeconv_r
00008edc g     F .text	000004c8 __sfvwrite_r
000062f0 g     F .text	0000003c __i2b
00006fe8 g     F .text	00000054 _sbrk_r
000095b4 g     F .text	00000060 _read_r
00012394 g     O .rwdata	00000004 alt_max_fd
00008b74 g     F .text	000000f0 _fclose_r
00004728 g     F .text	00000030 fflush
00013ea8 g     O .bss	00000004 __malloc_max_sbrked_mem
0000ac2c g     F .text	000008ac .hidden __adddf3
00006b00 g     F .text	0000010c __b2d
0000a4b4 g     F .text	000005c4 .hidden __umoddi3
0000d948 g     F .text	000000dc lseek
0001236c g     O .rwdata	00000004 _global_impure_ptr
00009614 g     F .text	00000564 _realloc_r
0001400c g       *ABS*	00000000 __bss_end
0000f29c g     F .text	000000f0 alt_iic_isr_register
0000d704 g     F .text	00000034 alt_getchar
0000f80c g     F .text	00000108 alt_tick
00009eb8 g     F .text	000005fc .hidden __udivdi3
00000380 g     F .text	000000dc send
00008ddc g     F .text	00000024 _fputwc_r
00010684 g     O .rodata	00000028 __mprec_bigtens
000060d4 g     F .text	00000104 __s2b
0000d3c4 g     F .text	000000a8 .hidden __floatunsidf
00006840 g     F .text	00000060 __mcmp
00004ad8 g     F .text	00000018 __fp_lock_all
0000f250 g     F .text	0000004c alt_ic_irq_enabled
0000f770 g     F .text	0000009c alt_alarm_stop
00013ec0 g     O .bss	00000004 alt_irq_active
00000000 g       *ABS*	00000000 __alt_mem_onchip_mem
000000fc g     F .exceptions	000000d4 alt_irq_handler
00011164 g     O .rwdata	00000028 alt_dev_null
0000ef0c g     F .text	00000020 alt_dcache_flush_all
000061d8 g     F .text	00000068 __hi0bits
000006f4 g     F .text	00000004 utoa
0000d268 g     F .text	00000080 .hidden __fixdfsi
000123ac g       *ABS*	00000000 __ram_rwdata_end
0001238c g     O .rwdata	00000008 alt_dev_list
0000e06c g     F .text	00000100 write
0000fea4 g     F .text	000000a0 _putc_r
000108c0 g       *ABS*	00000000 __ram_rodata_end
0000d64c g     F .text	000000b8 fstat
0000c00c g     F .text	000000f4 .hidden __ledf2
000065b8 g     F .text	00000140 __pow5mult
00007400 g     F .text	0000150c ___vfiprintf_internal_r
00013ea0 g     O .bss	00000004 __nlocale_changed
0000abd4 g     F .text	00000058 .hidden __umodsi3
0001400c g       *ABS*	00000000 end
000004c4 g     F .text	00000068 __itoa
0000e384 g     F .text	000000c0 altera_avalon_jtag_uart_init
000001d0 g     F .exceptions	00000060 alt_instruction_exception_entry
00010550 g       *ABS*	00000000 __CTOR_LIST__
000186a0 g       *ABS*	00000000 __alt_stack_pointer
0000d46c g     F .text	00000064 .hidden __clzsi2
0000ea64 g     F .text	00000224 altera_avalon_jtag_uart_write
00004ac8 g     F .text	00000004 __sfp_lock_acquire
00005b68 g     F .text	000000e4 memchr
000006f8 g     F .text	000022dc ___vfprintf_internal_r
00004c2c g     F .text	00000310 _free_r
0000dae8 g     F .text	0000022c alt_printf
0000514c g     F .text	00000010 __locale_mb_cur_max
0001000c g     F .text	00000074 __srget_r
000101ac g     F .text	00000180 __call_exitprocs
00013e9c g     O .bss	00000004 __mlocale_changed
00012378 g     O .rwdata	00000004 __malloc_sbrk_base
00000230 g     F .text	0000003c _start
00013ec4 g     O .bss	00000004 _alt_tick_rate
000066f8 g     F .text	00000148 __lshift
00013ec8 g     O .bss	00000004 _alt_nticks
0000ddc8 g     F .text	00000104 read
0000e1d8 g     F .text	00000048 alt_sys_init
00010094 g     F .text	00000118 __register_exitproc
00013ef8 g     O .bss	00000014 buffer
0000632c g     F .text	0000028c __multiply
0000e6f0 g     F .text	00000068 altera_avalon_jtag_uart_close
0000049c g     F .text	00000028 .hidden __mulsi3
000108c0 g       *ABS*	00000000 __ram_rwdata_start
00010550 g       *ABS*	00000000 __ram_rodata_start
00013ed0 g     O .bss	00000028 __malloc_current_mallinfo
00006c0c g     F .text	0000014c __d2b
0000e220 g     F .text	00000060 altera_avalon_jtag_uart_read_fd
0000fad0 g     F .text	000000c4 alt_get_fd
0000edb4 g     F .text	00000158 alt_busy_sleep
00008a44 g     F .text	00000054 _close_r
0000fe28 g     F .text	0000007c memcmp
0000e2e0 g     F .text	00000050 altera_avalon_jtag_uart_close_fd
0001400c g       *ABS*	00000000 __alt_stack_base
0000e330 g     F .text	00000054 altera_avalon_jtag_uart_ioctl_fd
00002aac g     F .text	00000154 __swsetup_r
0000b4d8 g     F .text	000009d0 .hidden __divdf3
00004988 g     F .text	00000118 __sfp
00006e70 g     F .text	00000078 __copybits
00010d5c g     O .rwdata	00000408 __malloc_av_
00004ad4 g     F .text	00000004 __sinit_lock_release
0000c100 g     F .text	0000086c .hidden __muldf3
0000703c g     F .text	00000054 __sread
0000f9c8 g     F .text	00000108 alt_find_file
0000ef68 g     F .text	000000a4 alt_dev_llist_insert
0000daa0 g     F .text	00000024 __malloc_lock
0000df50 g     F .text	000000b0 sbrk
000046cc g     F .text	0000005c _fflush_r
00008a98 g     F .text	000000dc _calloc_r
0000059c g     F .text	00000158 __utoa
00013e98 g       *ABS*	00000000 __bss_start
00005d94 g     F .text	00000128 memset
0000045c g     F .text	00000040 main
00013ebc g     O .bss	00000004 alt_envp
00013ea4 g     O .bss	00000004 __malloc_max_total_mem
0000e280 g     F .text	00000060 altera_avalon_jtag_uart_write_fd
00009cb8 g     F .text	00000018 __swbuf
00007170 g     F .text	00000008 __sclose
000186a0 g       *ABS*	00000000 __alt_heap_limit
00008c64 g     F .text	00000014 fclose
00002e28 g     F .text	00001688 _dtoa_r
0000535c g     F .text	0000080c _malloc_r
00009e2c g     F .text	00000030 __ascii_wctomb
00012398 g     O .rwdata	00000004 alt_errno
00004f3c g     F .text	000000c4 _fwalk
0000ff44 g     F .text	000000c8 putc
0000aa78 g     F .text	00000084 .hidden __divsi3
00004b08 g     F .text	00000124 _malloc_trim_r
00010550 g       *ABS*	00000000 __CTOR_END__
00007178 g     F .text	000000dc strcmp
00010550 g       *ABS*	00000000 __flash_rodata_start
00010550 g       *ABS*	00000000 __DTOR_LIST__
0000bea8 g     F .text	00000088 .hidden __nedf2
0000e1a0 g     F .text	00000038 alt_irq_init
0000decc g     F .text	00000084 alt_release_fd
00010794 g     O .rodata	00000100 .hidden __clz_tab
00013e98 g     O .bss	00000004 _PathLocale
0000fc30 g     F .text	00000014 atexit
000089e4 g     F .text	00000060 _write_r
0000517c g     F .text	00000018 setlocale
00012370 g     O .rwdata	00000004 _impure_ptr
00013eb4 g     O .bss	00000004 alt_argc
000002e8 g     F .text	00000098 receive
000044b0 g     F .text	0000021c __sflush_r
0000f06c g     F .text	00000060 _do_dtors
00005168 g     F .text	00000008 __locale_cjk_lang
00010348 g     F .text	000001d4 __srefill_r
00000020 g       .exceptions	00000000 alt_irq_entry
00006a9c g     F .text	00000064 __ulp
00004af0 g     F .text	00000018 __fp_unlock_all
00012384 g     O .rwdata	00000008 alt_fs_list
00000020 g       *ABS*	00000000 __ram_exceptions_start
00005194 g     F .text	0000000c localeconv
0000f0ec g     F .text	00000050 alt_ic_isr_register
000123ac g       *ABS*	00000000 _edata
0001400c g       *ABS*	00000000 _end
00008c78 g     F .text	00000164 __fputwc
00000230 g       *ABS*	00000000 __ram_exceptions_end
0000e758 g     F .text	000000f0 altera_avalon_jtag_uart_ioctl
0000fc7c g     F .text	0000009c _fputs_r
0000f1c4 g     F .text	0000008c alt_ic_irq_disable
00007098 g     F .text	0000007c __swrite
0001237c g     O .rwdata	00000004 __malloc_trim_threshold
0000515c g     F .text	0000000c __locale_msgcharset
0000fc44 g     F .text	00000038 exit
00005000 g     F .text	000000c4 _fwalk_reent
000068a0 g     F .text	000001fc __mdiff
0000aafc g     F .text	00000074 .hidden __modsi3
000186a0 g       *ABS*	00000000 __alt_data_end
00000020 g     F .exceptions	00000000 alt_exception
00004acc g     F .text	00000004 __sfp_lock_release
0001051c g     F .text	00000034 _exit
0000ec88 g     F .text	0000012c alt_alarm_start
000051a0 g     F .text	000001bc __smakebuf_r
00007254 g     F .text	00000098 strlen
0000f614 g     F .text	0000015c open
0000bf30 g     F .text	000000dc .hidden __gedf2
0000dd14 g     F .text	0000003c alt_putchar
00012380 g     O .rwdata	00000004 __wctomb
000073e8 g     F .text	00000018 __sprint_r
0000f0cc g     F .text	00000020 alt_icache_flush_all
0000fd18 g     F .text	00000018 fputs
000123a0 g     O .rwdata	00000004 alt_priority_mask
0000f13c g     F .text	00000088 alt_ic_irq_enable
000029d4 g     F .text	0000001c __vfprintf_internal
00009e5c g     F .text	0000005c _wctomb_r
0000c96c g     F .text	000008fc .hidden __subdf3
00006240 g     F .text	000000b0 __lo0bits
000123a4 g     O .rwdata	00000008 alt_alarm_list
0000f00c g     F .text	00000060 _do_ctors
00009d6c g     F .text	000000c0 wcrtomb
0000d50c g     F .text	000000d8 close
0000d888 g     F .text	00000084 alt_load
00008e00 g     F .text	00000080 fputwc
00004ad0 g     F .text	00000004 __sinit_lock_acquire
00005f8c g     F .text	00000148 __multadd
00005f64 g     F .text	00000028 _Bfree



Disassembly of section .entry:

00000000 <__reset>:
 * Jump to the _start entry point in the .text section if reset code
 * is allowed or if optimizing for RTL simulation.
 */
#if defined(ALT_ALLOW_CODE_AT_RESET) || defined(ALT_SIM_OPTIMIZE)
    /* Jump to the _start entry point in the .text section. */
    movhi r1, %hi(_start)
   0:	00400034 	movhi	at,0
    ori r1, r1, %lo(_start)
   4:	08408c14 	ori	at,at,560
    jmp r1
   8:	0800683a 	jmp	at
	...

Disassembly of section .exceptions:

00000020 <alt_exception>:

#else /* ALT_EXCEPTION_STACK disabled */
        /* 
         * Reserve space on normal stack for registers about to be pushed.
         */
        addi  sp, sp, -76
  20:	deffed04 	addi	sp,sp,-76
         * documentation for details).
         *
         * Leave a gap in the stack frame at 4(sp) for the muldiv handler to
         * store zero into.
         */
        stw   ra,  0(sp)
  24:	dfc00015 	stw	ra,0(sp)
        stw   r1,   8(sp)
  28:	d8400215 	stw	at,8(sp)
        stw   r2,  12(sp)
  2c:	d8800315 	stw	r2,12(sp)
        stw   r3,  16(sp)
  30:	d8c00415 	stw	r3,16(sp)
        stw   r4,  20(sp)
  34:	d9000515 	stw	r4,20(sp)
        stw   r5,  24(sp)
  38:	d9400615 	stw	r5,24(sp)
        stw   r6,  28(sp)
  3c:	d9800715 	stw	r6,28(sp)
        stw   r7,  32(sp)
  40:	d9c00815 	stw	r7,32(sp)
        rdctl r5, estatus   /* Read early to avoid usage stall */
  44:	000b307a 	rdctl	r5,estatus
        stw   r8,  36(sp)
  48:	da000915 	stw	r8,36(sp)
        stw   r9,  40(sp)
  4c:	da400a15 	stw	r9,40(sp)
        stw   r10, 44(sp)
  50:	da800b15 	stw	r10,44(sp)
        stw   r11, 48(sp)
  54:	dac00c15 	stw	r11,48(sp)
        stw   r12, 52(sp)
  58:	db000d15 	stw	r12,52(sp)
        stw   r13, 56(sp)
  5c:	db400e15 	stw	r13,56(sp)
        stw   r14, 60(sp)
  60:	db800f15 	stw	r14,60(sp)
        stw   r15, 64(sp)
  64:	dbc01015 	stw	r15,64(sp)
        /*
         * ea-4 contains the address of the instruction being executed
         * when the exception occured. For interrupt exceptions, we will
         * will be re-issue the isntruction. Store it in 72(sp)
         */
        stw   r5,  68(sp)  /* estatus */
  68:	d9401115 	stw	r5,68(sp)
        addi  r15, ea, -4  /* instruction that caused exception */
  6c:	ebffff04 	addi	r15,ea,-4
        stw   r15,  72(sp)
  70:	dbc01215 	stw	r15,72(sp)
#else
        /*
         * Test to see if the exception was a software exception or caused 
         * by an external interrupt, and vector accordingly.
         */
        rdctl r4, ipending
  74:	0009313a 	rdctl	r4,ipending
        andi  r2, r5, 1
  78:	2880004c 	andi	r2,r5,1
        beq   r2, zero, .Lnot_irq
  7c:	10000326 	beq	r2,zero,8c <alt_exception+0x6c>
        beq   r4, zero, .Lnot_irq
  80:	20000226 	beq	r4,zero,8c <alt_exception+0x6c>
        /*
         * Now that all necessary registers have been preserved, call 
         * alt_irq_handler() to process the interrupts.
         */

        call alt_irq_handler
  84:	00000fc0 	call	fc <alt_irq_handler>

        .section .exceptions.irqreturn, "xa"

        br    .Lexception_exit
  88:	00000706 	br	a8 <alt_exception+0x88>
         * upon completion, so we write ea (address of instruction *after*
         * the one where the exception occured) into 72(sp). The actual
         * instruction that caused the exception is written in r2, which these
         * handlers will utilize.
         */
        stw ea, 72(sp) /* EA is PC+4 so will skip over instruction causing exception */
  8c:	df401215 	stw	ea,72(sp)
.Lunknown_16bit:
        addi.n r4, r4, 2 /* Need PC+2 to skip over instruction causing exception */
        stw r4, 72(sp)

#else /* CDX is not Enabled and all instructions are 32bits */
        ldw r2, -4(ea) /* Instruction value that caused exception */
  90:	e8bfff17 	ldw	r2,-4(ea)
         * debugger is present) or go into an infinite loop since the
         * handling behavior is undefined; in that case we will not return here.
         */

        /* Load exception-causing address as first argument (r4) */
        addi   r4, ea, -4
  94:	e93fff04 	addi	r4,ea,-4

        /* Call the instruction-exception entry */
        call   alt_instruction_exception_entry
  98:	00001d00 	call	1d0 <alt_instruction_exception_entry>
         * instruction
         *
         * Return code was 0: Skip. The instruction after the exception is
         * already stored in 72(sp).
         */
        bne   r2, r0, .Lexception_exit
  9c:	1000021e 	bne	r2,zero,a8 <alt_exception+0x88>

        /*
         * Otherwise, modify 72(sp) to re-issue the instruction that caused the
         * exception.
         */
        addi  r15, ea, -4  /* instruction that caused exception */
  a0:	ebffff04 	addi	r15,ea,-4
        stw   r15,  72(sp)
  a4:	dbc01215 	stw	r15,72(sp)
        /* 
         * Restore the saved registers, so that all general purpose registers 
         * have been restored to their state at the time the interrupt occured.
         */

        ldw   r5,  68(sp)
  a8:	d9401117 	ldw	r5,68(sp)
        ldw   ea,  72(sp)  /* This becomes the PC once eret is executed */
  ac:	df401217 	ldw	ea,72(sp)
        ldw   ra,   0(sp)
  b0:	dfc00017 	ldw	ra,0(sp)

        wrctl estatus, r5
  b4:	2801707a 	wrctl	estatus,r5

        ldw   r1,   8(sp)
  b8:	d8400217 	ldw	at,8(sp)
        ldw   r2,  12(sp)
  bc:	d8800317 	ldw	r2,12(sp)
        ldw   r3,  16(sp)
  c0:	d8c00417 	ldw	r3,16(sp)
        ldw   r4,  20(sp)
  c4:	d9000517 	ldw	r4,20(sp)
        ldw   r5,  24(sp)
  c8:	d9400617 	ldw	r5,24(sp)
        ldw   r6,  28(sp)
  cc:	d9800717 	ldw	r6,28(sp)
        ldw   r7,  32(sp)
  d0:	d9c00817 	ldw	r7,32(sp)

#if defined(ALT_EXCEPTION_STACK) && defined(ALT_STACK_CHECK)
        ldw   et, %gprel(alt_exception_old_stack_limit)(gp)
#endif

        ldw   r8,  36(sp)
  d4:	da000917 	ldw	r8,36(sp)
        ldw   r9,  40(sp)
  d8:	da400a17 	ldw	r9,40(sp)
        ldw   r10, 44(sp)
  dc:	da800b17 	ldw	r10,44(sp)
        ldw   r11, 48(sp)
  e0:	dac00c17 	ldw	r11,48(sp)
        ldw   r12, 52(sp)
  e4:	db000d17 	ldw	r12,52(sp)
        ldw   r13, 56(sp)
  e8:	db400e17 	ldw	r13,56(sp)
        ldw   r14, 60(sp)
  ec:	db800f17 	ldw	r14,60(sp)
        ldw   r15, 64(sp)
  f0:	dbc01017 	ldw	r15,64(sp)
        stw   et, %gprel(alt_stack_limit_value)(gp)
        stw   zero, %gprel(alt_exception_old_stack_limit)(gp)
#endif /* ALT_STACK_CHECK */
        ldw   sp,  76(sp)
#else /* ALT_EXCEPTION_STACK disabled */
        addi  sp, sp, 76
  f4:	dec01304 	addi	sp,sp,76

        /*
         * Return to the interrupted instruction.
         */

        eret
  f8:	ef80083a 	eret

000000fc <alt_irq_handler>:
 * instruction is present if the macro ALT_CI_INTERRUPT_VECTOR defined.
 */

void alt_irq_handler (void) __attribute__ ((section (".exceptions")));
void alt_irq_handler (void)
{
  fc:	defff904 	addi	sp,sp,-28
 100:	dfc00615 	stw	ra,24(sp)
 104:	df000515 	stw	fp,20(sp)
 108:	df000504 	addi	fp,sp,20
  
  /*
   * Notify the operating system that we are at interrupt level.
   */ 
  
  ALT_OS_INT_ENTER();
 10c:	0001883a 	nop
#ifndef NIOS2_EIC_PRESENT
static ALT_INLINE alt_u32 ALT_ALWAYS_INLINE alt_irq_pending (void)
{
  alt_u32 active;

  NIOS2_READ_IPENDING (active);
 110:	0005313a 	rdctl	r2,ipending
 114:	e0bffe15 	stw	r2,-8(fp)

  return active;
 118:	e0bffe17 	ldw	r2,-8(fp)
   * Consider the case where the high priority interupt is asserted during
   * the interrupt entry sequence for a lower priority interrupt to see why
   * this is the case.
   */

  active = alt_irq_pending ();
 11c:	e0bffb15 	stw	r2,-20(fp)

  do
  {
    i = 0;
 120:	e03ffd15 	stw	zero,-12(fp)
    mask = 1;
 124:	00800044 	movi	r2,1
 128:	e0bffc15 	stw	r2,-16(fp)
     * called to clear the interrupt condition.
     */

    do
    {
      if (active & mask)
 12c:	e0fffb17 	ldw	r3,-20(fp)
 130:	e0bffc17 	ldw	r2,-16(fp)
 134:	1884703a 	and	r2,r3,r2
 138:	10001426 	beq	r2,zero,18c <alt_irq_handler+0x90>
      { 
#ifdef ALT_ENHANCED_INTERRUPT_API_PRESENT
        alt_irq[i].handler(alt_irq[i].context); 
 13c:	00800074 	movhi	r2,1
 140:	108fc304 	addi	r2,r2,16140
 144:	e0fffd17 	ldw	r3,-12(fp)
 148:	180690fa 	slli	r3,r3,3
 14c:	10c5883a 	add	r2,r2,r3
 150:	10c00017 	ldw	r3,0(r2)
 154:	00800074 	movhi	r2,1
 158:	108fc304 	addi	r2,r2,16140
 15c:	e13ffd17 	ldw	r4,-12(fp)
 160:	200890fa 	slli	r4,r4,3
 164:	1105883a 	add	r2,r2,r4
 168:	10800104 	addi	r2,r2,4
 16c:	10800017 	ldw	r2,0(r2)
 170:	1009883a 	mov	r4,r2
 174:	183ee83a 	callr	r3
#else
        alt_irq[i].handler(alt_irq[i].context, i); 
#endif
        break;
 178:	0001883a 	nop
#ifndef NIOS2_EIC_PRESENT
static ALT_INLINE alt_u32 ALT_ALWAYS_INLINE alt_irq_pending (void)
{
  alt_u32 active;

  NIOS2_READ_IPENDING (active);
 17c:	0005313a 	rdctl	r2,ipending
 180:	e0bfff15 	stw	r2,-4(fp)

  return active;
 184:	e0bfff17 	ldw	r2,-4(fp)
 188:	00000706 	br	1a8 <alt_irq_handler+0xac>
      }
      mask <<= 1;
 18c:	e0bffc17 	ldw	r2,-16(fp)
 190:	1085883a 	add	r2,r2,r2
 194:	e0bffc15 	stw	r2,-16(fp)
      i++;
 198:	e0bffd17 	ldw	r2,-12(fp)
 19c:	10800044 	addi	r2,r2,1
 1a0:	e0bffd15 	stw	r2,-12(fp)

    } while (1);
 1a4:	003fe106 	br	12c <_gp+0xfffe5dc0>

    active = alt_irq_pending ();
 1a8:	e0bffb15 	stw	r2,-20(fp)
    
  } while (active);
 1ac:	e0bffb17 	ldw	r2,-20(fp)
 1b0:	103fdb1e 	bne	r2,zero,120 <_gp+0xfffe5db4>

  /*
   * Notify the operating system that interrupt processing is complete.
   */ 

  ALT_OS_INT_EXIT();
 1b4:	0001883a 	nop
}
 1b8:	0001883a 	nop
 1bc:	e037883a 	mov	sp,fp
 1c0:	dfc00117 	ldw	ra,4(sp)
 1c4:	df000017 	ldw	fp,0(sp)
 1c8:	dec00204 	addi	sp,sp,8
 1cc:	f800283a 	ret

000001d0 <alt_instruction_exception_entry>:
 * that handler if it has been registered. Absent a handler, it will
 * break break or hang as discussed below.
 */
int 
alt_instruction_exception_entry (alt_u32 exception_pc)
{
 1d0:	defffb04 	addi	sp,sp,-20
 1d4:	dfc00415 	stw	ra,16(sp)
 1d8:	df000315 	stw	fp,12(sp)
 1dc:	df000304 	addi	fp,sp,12
 1e0:	e13fff15 	stw	r4,-4(fp)
  cause = ( (cause & NIOS2_EXCEPTION_REG_CAUSE_MASK) >>
              NIOS2_EXCEPTION_REG_CAUSE_OFST );

  NIOS2_READ_BADADDR(badaddr);
#else
  cause = NIOS2_EXCEPTION_CAUSE_NOT_PRESENT;
 1e4:	00bfffc4 	movi	r2,-1
 1e8:	e0bffd15 	stw	r2,-12(fp)
  badaddr = 0;
 1ec:	e03ffe15 	stw	zero,-8(fp)
#endif /* NIOS2_HAS_EXTRA_EXCEPTION_INFO */

  if(alt_instruction_exception_handler) {
 1f0:	d0a6d817 	ldw	r2,-25760(gp)
 1f4:	10000726 	beq	r2,zero,214 <alt_instruction_exception_entry+0x44>
     * Call handler. Its return value indicates whether the exception-causing
     * instruction should be re-issued. The code that called us,
     * alt_eceptions_entry.S, will look at this value and adjust the ea
     * register as necessary
     */
    return alt_instruction_exception_handler(cause, exception_pc, badaddr);
 1f8:	d0a6d817 	ldw	r2,-25760(gp)
 1fc:	e0fffd17 	ldw	r3,-12(fp)
 200:	e1bffe17 	ldw	r6,-8(fp)
 204:	e17fff17 	ldw	r5,-4(fp)
 208:	1809883a 	mov	r4,r3
 20c:	103ee83a 	callr	r2
 210:	00000206 	br	21c <alt_instruction_exception_entry+0x4c>
   *    (a peripheral which negates its interrupt output before its
   *    interrupt handler has been executed will cause spurious interrupts)
   */
  else {
#ifdef NIOS2_HAS_DEBUG_STUB
    NIOS2_BREAK();
 214:	003da03a 	break	0
      ;
#endif /* NIOS2_HAS_DEBUG_STUB */
  }

  /* We should not get here. Remove compiler warning. */
  return NIOS2_EXCEPTION_RETURN_REISSUE_INST;
 218:	0005883a 	mov	r2,zero
}
 21c:	e037883a 	mov	sp,fp
 220:	dfc00117 	ldw	ra,4(sp)
 224:	df000017 	ldw	fp,0(sp)
 228:	dec00204 	addi	sp,sp,8
 22c:	f800283a 	ret

Disassembly of section .text:

00000230 <_start>:

    /*
     * Now that the caches are initialized, set up the stack pointer and global pointer.
     * The values provided by the linker are assumed to be correctly aligned.
     */
    movhi sp, %hi(__alt_stack_pointer)
     230:	06c00074 	movhi	sp,1
    ori sp, sp, %lo(__alt_stack_pointer)
     234:	dee1a814 	ori	sp,sp,34464
    movhi gp, %hi(_gp)
     238:	06800074 	movhi	gp,1
    ori gp, gp, %lo(_gp)
     23c:	d6a8db14 	ori	gp,gp,41836
 */
#ifndef ALT_SIM_OPTIMIZE
    /* Log that the BSS is about to be cleared. */
    ALT_LOG_PUTS(alt_log_msg_bss)

    movhi r2, %hi(__bss_start)
     240:	00800074 	movhi	r2,1
    ori r2, r2, %lo(__bss_start)
     244:	108fa614 	ori	r2,r2,16024

    movhi r3, %hi(__bss_end)
     248:	00c00074 	movhi	r3,1
    ori r3, r3, %lo(__bss_end)
     24c:	18d00314 	ori	r3,r3,16396

    beq r2, r3, 1f
     250:	10c00326 	beq	r2,r3,260 <_start+0x30>

0:
    stw zero, (r2)
     254:	10000015 	stw	zero,0(r2)
    addi r2, r2, 4
     258:	10800104 	addi	r2,r2,4
    bltu r2, r3, 0b
     25c:	10fffd36 	bltu	r2,r3,254 <_gp+0xfffe5ee8>
     * section aren't defined until alt_load() has been called).
     */
    mov   et, zero
#endif

    call alt_load
     260:	000d8880 	call	d888 <alt_load>

    /* Log that alt_main is about to be called. */
    ALT_LOG_PUTS(alt_log_msg_alt_main)

    /* Call the C entry point. It should never return. */
    call alt_main
     264:	000da240 	call	da24 <alt_main>

00000268 <alt_after_alt_main>:

    /* Wait in infinite loop in case alt_main does return. */
alt_after_alt_main:
    br alt_after_alt_main
     268:	003fff06 	br	268 <_gp+0xfffe5efc>

0000026c <stupid>:
#define charRec (volatile char*) 0x21000


char buffer[20];

char stupid() {
     26c:	defff904 	addi	sp,sp,-28
     270:	dfc00615 	stw	ra,24(sp)
     274:	df000515 	stw	fp,20(sp)
     278:	df000504 	addi	fp,sp,20
    char c1 = alt_getchar();
     27c:	000d7040 	call	d704 <alt_getchar>
     280:	e0bffb05 	stb	r2,-20(fp)
    alt_getchar();
     284:	000d7040 	call	d704 <alt_getchar>
    char c2 = alt_getchar();
     288:	000d7040 	call	d704 <alt_getchar>
     28c:	e0bffb45 	stb	r2,-19(fp)
    alt_getchar();
     290:	000d7040 	call	d704 <alt_getchar>
    int big = c1 - '0';
     294:	e0bffb07 	ldb	r2,-20(fp)
     298:	10bff404 	addi	r2,r2,-48
     29c:	e0bffc15 	stw	r2,-16(fp)
    int small = c2 - '0';
     2a0:	e0bffb47 	ldb	r2,-19(fp)
     2a4:	10bff404 	addi	r2,r2,-48
     2a8:	e0bffd15 	stw	r2,-12(fp)
    int result = big * 10 + small;
     2ac:	01400284 	movi	r5,10
     2b0:	e13ffc17 	ldw	r4,-16(fp)
     2b4:	000049c0 	call	49c <__mulsi3>
     2b8:	1007883a 	mov	r3,r2
     2bc:	e0bffd17 	ldw	r2,-12(fp)
     2c0:	1885883a 	add	r2,r3,r2
     2c4:	e0bffe15 	stw	r2,-8(fp)
    char value = (char) result;
     2c8:	e0bffe17 	ldw	r2,-8(fp)
     2cc:	e0bfff05 	stb	r2,-4(fp)
    return value;
     2d0:	e0bfff03 	ldbu	r2,-4(fp)

}
     2d4:	e037883a 	mov	sp,fp
     2d8:	dfc00117 	ldw	ra,4(sp)
     2dc:	df000017 	ldw	fp,0(sp)
     2e0:	dec00204 	addi	sp,sp,8
     2e4:	f800283a 	ret

000002e8 <receive>:
void receive() {
     2e8:	defffc04 	addi	sp,sp,-16
     2ec:	dfc00315 	stw	ra,12(sp)
     2f0:	df000215 	stw	fp,8(sp)
     2f4:	df000204 	addi	fp,sp,8
	char result = '0';
     2f8:	00800c04 	movi	r2,48
     2fc:	e0bffe05 	stb	r2,-8(fp)
	while((*(charRec) & 0x1) != 0x1) {}
     300:	0001883a 	nop
     304:	008000b4 	movhi	r2,2
     308:	10840004 	addi	r2,r2,4096
     30c:	10800003 	ldbu	r2,0(r2)
     310:	10803fcc 	andi	r2,r2,255
     314:	1080004c 	andi	r2,r2,1
     318:	103ffa26 	beq	r2,zero,304 <_gp+0xfffe5f98>
	result = *(PLAYERIN);
     31c:	008000b4 	movhi	r2,2
     320:	10841404 	addi	r2,r2,4176
     324:	10800003 	ldbu	r2,0(r2)
     328:	e0bffe05 	stb	r2,-8(fp)
	result -= '0';
     32c:	e0bffe03 	ldbu	r2,-8(fp)
     330:	10bff404 	addi	r2,r2,-48
     334:	e0bffe05 	stb	r2,-8(fp)
	int trans = (int) result;
     338:	e0bffe07 	ldb	r2,-8(fp)
     33c:	e0bfff15 	stw	r2,-4(fp)
	itoa(trans, buffer, 10);
     340:	01800284 	movi	r6,10
     344:	01400074 	movhi	r5,1
     348:	294fbe04 	addi	r5,r5,16120
     34c:	e13fff17 	ldw	r4,-4(fp)
     350:	000052c0 	call	52c <itoa>
	alt_printf("received grid is %s\n", buffer);
     354:	01400074 	movhi	r5,1
     358:	294fbe04 	addi	r5,r5,16120
     35c:	01000074 	movhi	r4,1
     360:	21015404 	addi	r4,r4,1360
     364:	000dae80 	call	dae8 <alt_printf>
	return;
     368:	0001883a 	nop
}
     36c:	e037883a 	mov	sp,fp
     370:	dfc00117 	ldw	ra,4(sp)
     374:	df000017 	ldw	fp,0(sp)
     378:	dec00204 	addi	sp,sp,8
     37c:	f800283a 	ret

00000380 <send>:

void send() {
     380:	defffc04 	addi	sp,sp,-16
     384:	dfc00315 	stw	ra,12(sp)
     388:	df000215 	stw	fp,8(sp)
     38c:	df000204 	addi	fp,sp,8
	alt_putstr("Which grid do you want to choose? \n");
     390:	01000074 	movhi	r4,1
     394:	21015a04 	addi	r4,r4,1384
     398:	000dd500 	call	dd50 <alt_putstr>
    alt_putstr("Now please enter the grid \n");
     39c:	01000074 	movhi	r4,1
     3a0:	21016304 	addi	r4,r4,1420
     3a4:	000dd500 	call	dd50 <alt_putstr>
	char result = stupid();
     3a8:	000026c0 	call	26c <stupid>
     3ac:	e0bffe05 	stb	r2,-8(fp)
	*(PLAYEROUT) = (char) result;
     3b0:	008000b4 	movhi	r2,2
     3b4:	10841004 	addi	r2,r2,4160
     3b8:	e0fffe03 	ldbu	r3,-8(fp)
     3bc:	10c00005 	stb	r3,0(r2)
	result -= '0';
     3c0:	e0bffe03 	ldbu	r2,-8(fp)
     3c4:	10bff404 	addi	r2,r2,-48
     3c8:	e0bffe05 	stb	r2,-8(fp)
	int trans = (int) result;
     3cc:	e0bffe07 	ldb	r2,-8(fp)
     3d0:	e0bfff15 	stw	r2,-4(fp)
	if(trans == 2) alt_printf("yes\n");
     3d4:	e0bfff17 	ldw	r2,-4(fp)
     3d8:	10800098 	cmpnei	r2,r2,2
     3dc:	1000031e 	bne	r2,zero,3ec <send+0x6c>
     3e0:	01000074 	movhi	r4,1
     3e4:	21016a04 	addi	r4,r4,1448
     3e8:	000dae80 	call	dae8 <alt_printf>
	//itoa(trans, buffer, 10);
	//alt_printf("sending char %s\n",buffer);
	*(transmit) = 0x1;
     3ec:	008000b4 	movhi	r2,2
     3f0:	10840804 	addi	r2,r2,4128
     3f4:	00c00044 	movi	r3,1
     3f8:	10c00005 	stb	r3,0(r2)
	usleep(1000);
     3fc:	0100fa04 	movi	r4,1000
     400:	000e0000 	call	e000 <usleep>
	*(load) = 0x1;
     404:	008000b4 	movhi	r2,2
     408:	10840c04 	addi	r2,r2,4144
     40c:	00c00044 	movi	r3,1
     410:	10c00005 	stb	r3,0(r2)
	while(!charRec){}
     414:	0001883a 	nop
	usleep(2000);
     418:	0101f404 	movi	r4,2000
     41c:	000e0000 	call	e000 <usleep>
	*(transmit) = 0x0;
     420:	008000b4 	movhi	r2,2
     424:	10840804 	addi	r2,r2,4128
     428:	10000005 	stb	zero,0(r2)
	*(load) = 0x0;
     42c:	008000b4 	movhi	r2,2
     430:	10840c04 	addi	r2,r2,4144
     434:	10000005 	stb	zero,0(r2)
	alt_printf("sent \n");
     438:	01000074 	movhi	r4,1
     43c:	21016c04 	addi	r4,r4,1456
     440:	000dae80 	call	dae8 <alt_printf>
	return;
     444:	0001883a 	nop
}
     448:	e037883a 	mov	sp,fp
     44c:	dfc00117 	ldw	ra,4(sp)
     450:	df000017 	ldw	fp,0(sp)
     454:	dec00204 	addi	sp,sp,8
     458:	f800283a 	ret

0000045c <main>:
int main()
{
     45c:	defffd04 	addi	sp,sp,-12
     460:	dfc00215 	stw	ra,8(sp)
     464:	df000115 	stw	fp,4(sp)
     468:	df000104 	addi	fp,sp,4
	while(1) {
		printf("send or receive?");
     46c:	01000074 	movhi	r4,1
     470:	21016e04 	addi	r4,r4,1464
     474:	00005600 	call	560 <printf>
		char choice = alt_getchar();
     478:	000d7040 	call	d704 <alt_getchar>
     47c:	e0bfff05 	stb	r2,-4(fp)
		if (choice == 'r') {
     480:	e0bfff07 	ldb	r2,-4(fp)
     484:	10801c98 	cmpnei	r2,r2,114
     488:	1000021e 	bne	r2,zero,494 <main+0x38>
			receive();
     48c:	00002e80 	call	2e8 <receive>
     490:	003ff606 	br	46c <_gp+0xfffe6100>
		} else {
			send();
     494:	00003800 	call	380 <send>
		}
	}
     498:	003ff406 	br	46c <_gp+0xfffe6100>

0000049c <__mulsi3>:
     49c:	0005883a 	mov	r2,zero
     4a0:	20000726 	beq	r4,zero,4c0 <__mulsi3+0x24>
     4a4:	20c0004c 	andi	r3,r4,1
     4a8:	2008d07a 	srli	r4,r4,1
     4ac:	18000126 	beq	r3,zero,4b4 <__mulsi3+0x18>
     4b0:	1145883a 	add	r2,r2,r5
     4b4:	294b883a 	add	r5,r5,r5
     4b8:	203ffa1e 	bne	r4,zero,4a4 <_gp+0xfffe6138>
     4bc:	f800283a 	ret
     4c0:	f800283a 	ret

000004c4 <__itoa>:
     4c4:	30bfff84 	addi	r2,r6,-2
     4c8:	00c00884 	movi	r3,34
     4cc:	18801436 	bltu	r3,r2,520 <__itoa+0x5c>
     4d0:	defffe04 	addi	sp,sp,-8
     4d4:	dfc00115 	stw	ra,4(sp)
     4d8:	dc000015 	stw	r16,0(sp)
     4dc:	00800284 	movi	r2,10
     4e0:	30800926 	beq	r6,r2,508 <__itoa+0x44>
     4e4:	0005883a 	mov	r2,zero
     4e8:	2821883a 	mov	r16,r5
     4ec:	288b883a 	add	r5,r5,r2
     4f0:	000059c0 	call	59c <__utoa>
     4f4:	8005883a 	mov	r2,r16
     4f8:	dfc00117 	ldw	ra,4(sp)
     4fc:	dc000017 	ldw	r16,0(sp)
     500:	dec00204 	addi	sp,sp,8
     504:	f800283a 	ret
     508:	203ff60e 	bge	r4,zero,4e4 <_gp+0xfffe6178>
     50c:	00800b44 	movi	r2,45
     510:	28800005 	stb	r2,0(r5)
     514:	0109c83a 	sub	r4,zero,r4
     518:	00800044 	movi	r2,1
     51c:	003ff206 	br	4e8 <_gp+0xfffe617c>
     520:	28000005 	stb	zero,0(r5)
     524:	0005883a 	mov	r2,zero
     528:	f800283a 	ret

0000052c <itoa>:
     52c:	00004c41 	jmpi	4c4 <__itoa>

00000530 <_printf_r>:
     530:	defffd04 	addi	sp,sp,-12
     534:	2805883a 	mov	r2,r5
     538:	dfc00015 	stw	ra,0(sp)
     53c:	d9800115 	stw	r6,4(sp)
     540:	d9c00215 	stw	r7,8(sp)
     544:	21400217 	ldw	r5,8(r4)
     548:	d9c00104 	addi	r7,sp,4
     54c:	100d883a 	mov	r6,r2
     550:	00006f80 	call	6f8 <___vfprintf_internal_r>
     554:	dfc00017 	ldw	ra,0(sp)
     558:	dec00304 	addi	sp,sp,12
     55c:	f800283a 	ret

00000560 <printf>:
     560:	defffc04 	addi	sp,sp,-16
     564:	dfc00015 	stw	ra,0(sp)
     568:	d9400115 	stw	r5,4(sp)
     56c:	d9800215 	stw	r6,8(sp)
     570:	d9c00315 	stw	r7,12(sp)
     574:	00800074 	movhi	r2,1
     578:	1088dc04 	addi	r2,r2,9072
     57c:	10800017 	ldw	r2,0(r2)
     580:	200b883a 	mov	r5,r4
     584:	d9800104 	addi	r6,sp,4
     588:	11000217 	ldw	r4,8(r2)
     58c:	00029d40 	call	29d4 <__vfprintf_internal>
     590:	dfc00017 	ldw	ra,0(sp)
     594:	dec00404 	addi	sp,sp,16
     598:	f800283a 	ret

0000059c <__utoa>:
     59c:	008cccb4 	movhi	r2,13106
     5a0:	defff004 	addi	sp,sp,-64
     5a4:	108c4c04 	addi	r2,r2,12592
     5a8:	d8800015 	stw	r2,0(sp)
     5ac:	008dcdb4 	movhi	r2,14134
     5b0:	108d4d04 	addi	r2,r2,13620
     5b4:	d8800115 	stw	r2,4(sp)
     5b8:	00989874 	movhi	r2,25185
     5bc:	108e4e04 	addi	r2,r2,14648
     5c0:	d8800215 	stw	r2,8(sp)
     5c4:	00999974 	movhi	r2,26213
     5c8:	109918c4 	addi	r2,r2,25699
     5cc:	d8800315 	stw	r2,12(sp)
     5d0:	009a9a74 	movhi	r2,27241
     5d4:	109a19c4 	addi	r2,r2,26727
     5d8:	d8800415 	stw	r2,16(sp)
     5dc:	009b9b74 	movhi	r2,28269
     5e0:	109b1ac4 	addi	r2,r2,27755
     5e4:	d8800515 	stw	r2,20(sp)
     5e8:	009c9c74 	movhi	r2,29297
     5ec:	109c1bc4 	addi	r2,r2,28783
     5f0:	d8800615 	stw	r2,24(sp)
     5f4:	009d9d74 	movhi	r2,30325
     5f8:	109d1cc4 	addi	r2,r2,29811
     5fc:	d8800715 	stw	r2,28(sp)
     600:	009e9e74 	movhi	r2,31353
     604:	109e1dc4 	addi	r2,r2,30839
     608:	dd000e15 	stw	r20,56(sp)
     60c:	d8800815 	stw	r2,32(sp)
     610:	dfc00f15 	stw	ra,60(sp)
     614:	dcc00d15 	stw	r19,52(sp)
     618:	dc800c15 	stw	r18,48(sp)
     61c:	dc400b15 	stw	r17,44(sp)
     620:	dc000a15 	stw	r16,40(sp)
     624:	d8000905 	stb	zero,36(sp)
     628:	30bfff84 	addi	r2,r6,-2
     62c:	00c00884 	movi	r3,34
     630:	2829883a 	mov	r20,r5
     634:	18802c36 	bltu	r3,r2,6e8 <__utoa+0x14c>
     638:	3027883a 	mov	r19,r6
     63c:	2023883a 	mov	r17,r4
     640:	2825883a 	mov	r18,r5
     644:	0021883a 	mov	r16,zero
     648:	00000106 	br	650 <__utoa+0xb4>
     64c:	1821883a 	mov	r16,r3
     650:	8809883a 	mov	r4,r17
     654:	980b883a 	mov	r5,r19
     658:	000abd40 	call	abd4 <__umodsi3>
     65c:	d885883a 	add	r2,sp,r2
     660:	10800003 	ldbu	r2,0(r2)
     664:	8809883a 	mov	r4,r17
     668:	980b883a 	mov	r5,r19
     66c:	90800005 	stb	r2,0(r18)
     670:	000ab700 	call	ab70 <__udivsi3>
     674:	1023883a 	mov	r17,r2
     678:	80c00044 	addi	r3,r16,1
     67c:	94800044 	addi	r18,r18,1
     680:	103ff21e 	bne	r2,zero,64c <_gp+0xfffe62e0>
     684:	a0c7883a 	add	r3,r20,r3
     688:	18000005 	stb	zero,0(r3)
     68c:	80000d26 	beq	r16,zero,6c4 <__utoa+0x128>
     690:	01c00044 	movi	r7,1
     694:	a409883a 	add	r4,r20,r16
     698:	a007883a 	mov	r3,r20
     69c:	3d0fc83a 	sub	r7,r7,r20
     6a0:	21800003 	ldbu	r6,0(r4)
     6a4:	19400003 	ldbu	r5,0(r3)
     6a8:	38c5883a 	add	r2,r7,r3
     6ac:	19800005 	stb	r6,0(r3)
     6b0:	21400005 	stb	r5,0(r4)
     6b4:	843fffc4 	addi	r16,r16,-1
     6b8:	18c00044 	addi	r3,r3,1
     6bc:	213fffc4 	addi	r4,r4,-1
     6c0:	143ff716 	blt	r2,r16,6a0 <_gp+0xfffe6334>
     6c4:	a005883a 	mov	r2,r20
     6c8:	dfc00f17 	ldw	ra,60(sp)
     6cc:	dd000e17 	ldw	r20,56(sp)
     6d0:	dcc00d17 	ldw	r19,52(sp)
     6d4:	dc800c17 	ldw	r18,48(sp)
     6d8:	dc400b17 	ldw	r17,44(sp)
     6dc:	dc000a17 	ldw	r16,40(sp)
     6e0:	dec01004 	addi	sp,sp,64
     6e4:	f800283a 	ret
     6e8:	28000005 	stb	zero,0(r5)
     6ec:	0005883a 	mov	r2,zero
     6f0:	003ff506 	br	6c8 <_gp+0xfffe635c>

000006f4 <utoa>:
     6f4:	000059c1 	jmpi	59c <__utoa>

000006f8 <___vfprintf_internal_r>:
     6f8:	deffb804 	addi	sp,sp,-288
     6fc:	dfc04715 	stw	ra,284(sp)
     700:	ddc04515 	stw	r23,276(sp)
     704:	dd404315 	stw	r21,268(sp)
     708:	d9002d15 	stw	r4,180(sp)
     70c:	282f883a 	mov	r23,r5
     710:	302b883a 	mov	r21,r6
     714:	d9c02e15 	stw	r7,184(sp)
     718:	df004615 	stw	fp,280(sp)
     71c:	dd804415 	stw	r22,272(sp)
     720:	dd004215 	stw	r20,264(sp)
     724:	dcc04115 	stw	r19,260(sp)
     728:	dc804015 	stw	r18,256(sp)
     72c:	dc403f15 	stw	r17,252(sp)
     730:	dc003e15 	stw	r16,248(sp)
     734:	00051700 	call	5170 <_localeconv_r>
     738:	10800017 	ldw	r2,0(r2)
     73c:	1009883a 	mov	r4,r2
     740:	d8803415 	stw	r2,208(sp)
     744:	00072540 	call	7254 <strlen>
     748:	d8803715 	stw	r2,220(sp)
     74c:	d8802d17 	ldw	r2,180(sp)
     750:	10000226 	beq	r2,zero,75c <___vfprintf_internal_r+0x64>
     754:	10800e17 	ldw	r2,56(r2)
     758:	1000fb26 	beq	r2,zero,b48 <___vfprintf_internal_r+0x450>
     75c:	b880030b 	ldhu	r2,12(r23)
     760:	10c8000c 	andi	r3,r2,8192
     764:	1800061e 	bne	r3,zero,780 <___vfprintf_internal_r+0x88>
     768:	b9001917 	ldw	r4,100(r23)
     76c:	00f7ffc4 	movi	r3,-8193
     770:	10880014 	ori	r2,r2,8192
     774:	20c6703a 	and	r3,r4,r3
     778:	b880030d 	sth	r2,12(r23)
     77c:	b8c01915 	stw	r3,100(r23)
     780:	10c0020c 	andi	r3,r2,8
     784:	1800c326 	beq	r3,zero,a94 <___vfprintf_internal_r+0x39c>
     788:	b8c00417 	ldw	r3,16(r23)
     78c:	1800c126 	beq	r3,zero,a94 <___vfprintf_internal_r+0x39c>
     790:	1080068c 	andi	r2,r2,26
     794:	00c00284 	movi	r3,10
     798:	10c0c626 	beq	r2,r3,ab4 <___vfprintf_internal_r+0x3bc>
     79c:	d8c00404 	addi	r3,sp,16
     7a0:	05000074 	movhi	r20,1
     7a4:	d9001e04 	addi	r4,sp,120
     7a8:	a5018384 	addi	r20,r20,1550
     7ac:	d8c01e15 	stw	r3,120(sp)
     7b0:	d8002015 	stw	zero,128(sp)
     7b4:	d8001f15 	stw	zero,124(sp)
     7b8:	d8003315 	stw	zero,204(sp)
     7bc:	d8003615 	stw	zero,216(sp)
     7c0:	d8003815 	stw	zero,224(sp)
     7c4:	1811883a 	mov	r8,r3
     7c8:	d8003915 	stw	zero,228(sp)
     7cc:	d8003a15 	stw	zero,232(sp)
     7d0:	d8002f15 	stw	zero,188(sp)
     7d4:	d9002815 	stw	r4,160(sp)
     7d8:	a8800007 	ldb	r2,0(r21)
     7dc:	10028b26 	beq	r2,zero,120c <___vfprintf_internal_r+0xb14>
     7e0:	00c00944 	movi	r3,37
     7e4:	a823883a 	mov	r17,r21
     7e8:	10c0021e 	bne	r2,r3,7f4 <___vfprintf_internal_r+0xfc>
     7ec:	00001406 	br	840 <___vfprintf_internal_r+0x148>
     7f0:	10c00326 	beq	r2,r3,800 <___vfprintf_internal_r+0x108>
     7f4:	8c400044 	addi	r17,r17,1
     7f8:	88800007 	ldb	r2,0(r17)
     7fc:	103ffc1e 	bne	r2,zero,7f0 <_gp+0xfffe6484>
     800:	8d61c83a 	sub	r16,r17,r21
     804:	80000e26 	beq	r16,zero,840 <___vfprintf_internal_r+0x148>
     808:	d8c02017 	ldw	r3,128(sp)
     80c:	d8801f17 	ldw	r2,124(sp)
     810:	45400015 	stw	r21,0(r8)
     814:	1c07883a 	add	r3,r3,r16
     818:	10800044 	addi	r2,r2,1
     81c:	d8c02015 	stw	r3,128(sp)
     820:	44000115 	stw	r16,4(r8)
     824:	d8801f15 	stw	r2,124(sp)
     828:	00c001c4 	movi	r3,7
     82c:	1880a916 	blt	r3,r2,ad4 <___vfprintf_internal_r+0x3dc>
     830:	42000204 	addi	r8,r8,8
     834:	d9402f17 	ldw	r5,188(sp)
     838:	2c0b883a 	add	r5,r5,r16
     83c:	d9402f15 	stw	r5,188(sp)
     840:	88800007 	ldb	r2,0(r17)
     844:	1000aa26 	beq	r2,zero,af0 <___vfprintf_internal_r+0x3f8>
     848:	8d400044 	addi	r21,r17,1
     84c:	8c400047 	ldb	r17,1(r17)
     850:	0021883a 	mov	r16,zero
     854:	00bfffc4 	movi	r2,-1
     858:	0025883a 	mov	r18,zero
     85c:	dc002905 	stb	r16,164(sp)
     860:	d8002785 	stb	zero,158(sp)
     864:	d8002b05 	stb	zero,172(sp)
     868:	d8802a15 	stw	r2,168(sp)
     86c:	d8003115 	stw	zero,196(sp)
     870:	04c01604 	movi	r19,88
     874:	05800244 	movi	r22,9
     878:	9021883a 	mov	r16,r18
     87c:	4039883a 	mov	fp,r8
     880:	ad400044 	addi	r21,r21,1
     884:	88bff804 	addi	r2,r17,-32
     888:	98833236 	bltu	r19,r2,1554 <___vfprintf_internal_r+0xe5c>
     88c:	100490ba 	slli	r2,r2,2
     890:	00c00034 	movhi	r3,0
     894:	18c22904 	addi	r3,r3,2212
     898:	10c5883a 	add	r2,r2,r3
     89c:	10800017 	ldw	r2,0(r2)
     8a0:	1000683a 	jmp	r2
     8a4:	0000144c 	andi	zero,zero,81
     8a8:	00001554 	movui	zero,85
     8ac:	00001554 	movui	zero,85
     8b0:	0000146c 	andhi	zero,zero,81
     8b4:	00001554 	movui	zero,85
     8b8:	00001554 	movui	zero,85
     8bc:	00001554 	movui	zero,85
     8c0:	00001554 	movui	zero,85
     8c4:	00001554 	movui	zero,85
     8c8:	00001554 	movui	zero,85
     8cc:	00000b54 	movui	zero,45
     8d0:	0000135c 	xori	zero,zero,77
     8d4:	00001554 	movui	zero,85
     8d8:	00000a18 	cmpnei	zero,zero,40
     8dc:	00000b78 	rdprs	zero,zero,45
     8e0:	00001554 	movui	zero,85
     8e4:	00000bc8 	cmpgei	zero,zero,47
     8e8:	00000bd4 	movui	zero,47
     8ec:	00000bd4 	movui	zero,47
     8f0:	00000bd4 	movui	zero,47
     8f4:	00000bd4 	movui	zero,47
     8f8:	00000bd4 	movui	zero,47
     8fc:	00000bd4 	movui	zero,47
     900:	00000bd4 	movui	zero,47
     904:	00000bd4 	movui	zero,47
     908:	00000bd4 	movui	zero,47
     90c:	00001554 	movui	zero,85
     910:	00001554 	movui	zero,85
     914:	00001554 	movui	zero,85
     918:	00001554 	movui	zero,85
     91c:	00001554 	movui	zero,85
     920:	00001554 	movui	zero,85
     924:	00001554 	movui	zero,85
     928:	00001554 	movui	zero,85
     92c:	00001554 	movui	zero,85
     930:	00001554 	movui	zero,85
     934:	00000c10 	cmplti	zero,zero,48
     938:	00000cd8 	cmpnei	zero,zero,51
     93c:	00001554 	movui	zero,85
     940:	00000cd8 	cmpnei	zero,zero,51
     944:	00001554 	movui	zero,85
     948:	00001554 	movui	zero,85
     94c:	00001554 	movui	zero,85
     950:	00001554 	movui	zero,85
     954:	00000d84 	movi	zero,54
     958:	00001554 	movui	zero,85
     95c:	00001554 	movui	zero,85
     960:	00000d90 	cmplti	zero,zero,54
     964:	00001554 	movui	zero,85
     968:	00001554 	movui	zero,85
     96c:	00001554 	movui	zero,85
     970:	00001554 	movui	zero,85
     974:	00001554 	movui	zero,85
     978:	00001214 	movui	zero,72
     97c:	00001554 	movui	zero,85
     980:	00001554 	movui	zero,85
     984:	00001280 	call	128 <alt_irq_handler+0x2c>
     988:	00001554 	movui	zero,85
     98c:	00001554 	movui	zero,85
     990:	00001554 	movui	zero,85
     994:	00001554 	movui	zero,85
     998:	00001554 	movui	zero,85
     99c:	00001554 	movui	zero,85
     9a0:	00001554 	movui	zero,85
     9a4:	00001554 	movui	zero,85
     9a8:	00001554 	movui	zero,85
     9ac:	00001554 	movui	zero,85
     9b0:	000014f8 	rdprs	zero,zero,83
     9b4:	00001478 	rdprs	zero,zero,81
     9b8:	00000cd8 	cmpnei	zero,zero,51
     9bc:	00000cd8 	cmpnei	zero,zero,51
     9c0:	00000cd8 	cmpnei	zero,zero,51
     9c4:	00001498 	cmpnei	zero,zero,82
     9c8:	00001478 	rdprs	zero,zero,81
     9cc:	00001554 	movui	zero,85
     9d0:	00001554 	movui	zero,85
     9d4:	000014a4 	muli	zero,zero,82
     9d8:	00001554 	movui	zero,85
     9dc:	000014b8 	rdprs	zero,zero,82
     9e0:	0000133c 	xorhi	zero,zero,76
     9e4:	00000a24 	muli	zero,zero,40
     9e8:	00001374 	movhi	zero,77
     9ec:	00001554 	movui	zero,85
     9f0:	00001380 	call	138 <alt_irq_handler+0x3c>
     9f4:	00001554 	movui	zero,85
     9f8:	000013e4 	muli	zero,zero,79
     9fc:	00001554 	movui	zero,85
     a00:	00001554 	movui	zero,85
     a04:	00001404 	movi	zero,80
     a08:	d8c03117 	ldw	r3,196(sp)
     a0c:	d8802e15 	stw	r2,184(sp)
     a10:	00c7c83a 	sub	r3,zero,r3
     a14:	d8c03115 	stw	r3,196(sp)
     a18:	84000114 	ori	r16,r16,4
     a1c:	ac400007 	ldb	r17,0(r21)
     a20:	003f9706 	br	880 <_gp+0xfffe6514>
     a24:	00800c04 	movi	r2,48
     a28:	d8802705 	stb	r2,156(sp)
     a2c:	00801e04 	movi	r2,120
     a30:	d8802745 	stb	r2,157(sp)
     a34:	d9002a17 	ldw	r4,168(sp)
     a38:	d8802e17 	ldw	r2,184(sp)
     a3c:	d8002785 	stb	zero,158(sp)
     a40:	e011883a 	mov	r8,fp
     a44:	10c00104 	addi	r3,r2,4
     a48:	14c00017 	ldw	r19,0(r2)
     a4c:	002d883a 	mov	r22,zero
     a50:	80800094 	ori	r2,r16,2
     a54:	2002ca16 	blt	r4,zero,1580 <___vfprintf_internal_r+0xe88>
     a58:	00bfdfc4 	movi	r2,-129
     a5c:	80a4703a 	and	r18,r16,r2
     a60:	d8c02e15 	stw	r3,184(sp)
     a64:	94800094 	ori	r18,r18,2
     a68:	9802b41e 	bne	r19,zero,153c <___vfprintf_internal_r+0xe44>
     a6c:	01400074 	movhi	r5,1
     a70:	29417c04 	addi	r5,r5,1520
     a74:	d9403915 	stw	r5,228(sp)
     a78:	04401e04 	movi	r17,120
     a7c:	d8802a17 	ldw	r2,168(sp)
     a80:	0039883a 	mov	fp,zero
     a84:	1001fa26 	beq	r2,zero,1270 <___vfprintf_internal_r+0xb78>
     a88:	0027883a 	mov	r19,zero
     a8c:	002d883a 	mov	r22,zero
     a90:	00021906 	br	12f8 <___vfprintf_internal_r+0xc00>
     a94:	d9002d17 	ldw	r4,180(sp)
     a98:	b80b883a 	mov	r5,r23
     a9c:	0002aac0 	call	2aac <__swsetup_r>
     aa0:	1005dc1e 	bne	r2,zero,2214 <___vfprintf_internal_r+0x1b1c>
     aa4:	b880030b 	ldhu	r2,12(r23)
     aa8:	00c00284 	movi	r3,10
     aac:	1080068c 	andi	r2,r2,26
     ab0:	10ff3a1e 	bne	r2,r3,79c <_gp+0xfffe6430>
     ab4:	b880038f 	ldh	r2,14(r23)
     ab8:	103f3816 	blt	r2,zero,79c <_gp+0xfffe6430>
     abc:	d9c02e17 	ldw	r7,184(sp)
     ac0:	d9002d17 	ldw	r4,180(sp)
     ac4:	a80d883a 	mov	r6,r21
     ac8:	b80b883a 	mov	r5,r23
     acc:	00029f00 	call	29f0 <__sbprintf>
     ad0:	00001106 	br	b18 <___vfprintf_internal_r+0x420>
     ad4:	d9002d17 	ldw	r4,180(sp)
     ad8:	d9801e04 	addi	r6,sp,120
     adc:	b80b883a 	mov	r5,r23
     ae0:	00073e80 	call	73e8 <__sprint_r>
     ae4:	1000081e 	bne	r2,zero,b08 <___vfprintf_internal_r+0x410>
     ae8:	da000404 	addi	r8,sp,16
     aec:	003f5106 	br	834 <_gp+0xfffe64c8>
     af0:	d8802017 	ldw	r2,128(sp)
     af4:	10000426 	beq	r2,zero,b08 <___vfprintf_internal_r+0x410>
     af8:	d9002d17 	ldw	r4,180(sp)
     afc:	d9801e04 	addi	r6,sp,120
     b00:	b80b883a 	mov	r5,r23
     b04:	00073e80 	call	73e8 <__sprint_r>
     b08:	b880030b 	ldhu	r2,12(r23)
     b0c:	1080100c 	andi	r2,r2,64
     b10:	1005c01e 	bne	r2,zero,2214 <___vfprintf_internal_r+0x1b1c>
     b14:	d8802f17 	ldw	r2,188(sp)
     b18:	dfc04717 	ldw	ra,284(sp)
     b1c:	df004617 	ldw	fp,280(sp)
     b20:	ddc04517 	ldw	r23,276(sp)
     b24:	dd804417 	ldw	r22,272(sp)
     b28:	dd404317 	ldw	r21,268(sp)
     b2c:	dd004217 	ldw	r20,264(sp)
     b30:	dcc04117 	ldw	r19,260(sp)
     b34:	dc804017 	ldw	r18,256(sp)
     b38:	dc403f17 	ldw	r17,252(sp)
     b3c:	dc003e17 	ldw	r16,248(sp)
     b40:	dec04804 	addi	sp,sp,288
     b44:	f800283a 	ret
     b48:	d9002d17 	ldw	r4,180(sp)
     b4c:	0004ab80 	call	4ab8 <__sinit>
     b50:	003f0206 	br	75c <_gp+0xfffe63f0>
     b54:	d9002e17 	ldw	r4,184(sp)
     b58:	d9402e17 	ldw	r5,184(sp)
     b5c:	21000017 	ldw	r4,0(r4)
     b60:	28800104 	addi	r2,r5,4
     b64:	d9003115 	stw	r4,196(sp)
     b68:	203fa716 	blt	r4,zero,a08 <_gp+0xfffe669c>
     b6c:	d8802e15 	stw	r2,184(sp)
     b70:	ac400007 	ldb	r17,0(r21)
     b74:	003f4206 	br	880 <_gp+0xfffe6514>
     b78:	ac400007 	ldb	r17,0(r21)
     b7c:	01000a84 	movi	r4,42
     b80:	a8c00044 	addi	r3,r21,1
     b84:	89075826 	beq	r17,r4,28e8 <___vfprintf_internal_r+0x21f0>
     b88:	8cbff404 	addi	r18,r17,-48
     b8c:	b486ae36 	bltu	r22,r18,2648 <___vfprintf_internal_r+0x1f50>
     b90:	0009883a 	mov	r4,zero
     b94:	1823883a 	mov	r17,r3
     b98:	01400284 	movi	r5,10
     b9c:	000049c0 	call	49c <__mulsi3>
     ba0:	88c00007 	ldb	r3,0(r17)
     ba4:	1489883a 	add	r4,r2,r18
     ba8:	8d400044 	addi	r21,r17,1
     bac:	1cbff404 	addi	r18,r3,-48
     bb0:	a823883a 	mov	r17,r21
     bb4:	b4bff82e 	bgeu	r22,r18,b98 <_gp+0xfffe682c>
     bb8:	1823883a 	mov	r17,r3
     bbc:	2005f616 	blt	r4,zero,2398 <___vfprintf_internal_r+0x1ca0>
     bc0:	d9002a15 	stw	r4,168(sp)
     bc4:	003f2f06 	br	884 <_gp+0xfffe6518>
     bc8:	84002014 	ori	r16,r16,128
     bcc:	ac400007 	ldb	r17,0(r21)
     bd0:	003f2b06 	br	880 <_gp+0xfffe6514>
     bd4:	8cbff404 	addi	r18,r17,-48
     bd8:	d8003115 	stw	zero,196(sp)
     bdc:	0009883a 	mov	r4,zero
     be0:	a823883a 	mov	r17,r21
     be4:	01400284 	movi	r5,10
     be8:	000049c0 	call	49c <__mulsi3>
     bec:	88c00007 	ldb	r3,0(r17)
     bf0:	9089883a 	add	r4,r18,r2
     bf4:	ad400044 	addi	r21,r21,1
     bf8:	1cbff404 	addi	r18,r3,-48
     bfc:	a823883a 	mov	r17,r21
     c00:	b4bff82e 	bgeu	r22,r18,be4 <_gp+0xfffe6878>
     c04:	1823883a 	mov	r17,r3
     c08:	d9003115 	stw	r4,196(sp)
     c0c:	003f1d06 	br	884 <_gp+0xfffe6518>
     c10:	8025883a 	mov	r18,r16
     c14:	dc002903 	ldbu	r16,164(sp)
     c18:	e011883a 	mov	r8,fp
     c1c:	84003fcc 	andi	r16,r16,255
     c20:	8007531e 	bne	r16,zero,2970 <___vfprintf_internal_r+0x2278>
     c24:	94800414 	ori	r18,r18,16
     c28:	9080080c 	andi	r2,r18,32
     c2c:	1003a326 	beq	r2,zero,1abc <___vfprintf_internal_r+0x13c4>
     c30:	d9002e17 	ldw	r4,184(sp)
     c34:	20800117 	ldw	r2,4(r4)
     c38:	24c00017 	ldw	r19,0(r4)
     c3c:	21000204 	addi	r4,r4,8
     c40:	d9002e15 	stw	r4,184(sp)
     c44:	102d883a 	mov	r22,r2
     c48:	10047316 	blt	r2,zero,1e18 <___vfprintf_internal_r+0x1720>
     c4c:	d9002a17 	ldw	r4,168(sp)
     c50:	df002783 	ldbu	fp,158(sp)
     c54:	2003e416 	blt	r4,zero,1be8 <___vfprintf_internal_r+0x14f0>
     c58:	00ffdfc4 	movi	r3,-129
     c5c:	9d84b03a 	or	r2,r19,r22
     c60:	90e4703a 	and	r18,r18,r3
     c64:	10018026 	beq	r2,zero,1268 <___vfprintf_internal_r+0xb70>
     c68:	b003ab26 	beq	r22,zero,1b18 <___vfprintf_internal_r+0x1420>
     c6c:	dc402915 	stw	r17,164(sp)
     c70:	dc001e04 	addi	r16,sp,120
     c74:	b023883a 	mov	r17,r22
     c78:	402d883a 	mov	r22,r8
     c7c:	9809883a 	mov	r4,r19
     c80:	880b883a 	mov	r5,r17
     c84:	01800284 	movi	r6,10
     c88:	000f883a 	mov	r7,zero
     c8c:	000a4b40 	call	a4b4 <__umoddi3>
     c90:	10800c04 	addi	r2,r2,48
     c94:	843fffc4 	addi	r16,r16,-1
     c98:	9809883a 	mov	r4,r19
     c9c:	880b883a 	mov	r5,r17
     ca0:	80800005 	stb	r2,0(r16)
     ca4:	01800284 	movi	r6,10
     ca8:	000f883a 	mov	r7,zero
     cac:	0009eb80 	call	9eb8 <__udivdi3>
     cb0:	1027883a 	mov	r19,r2
     cb4:	10c4b03a 	or	r2,r2,r3
     cb8:	1823883a 	mov	r17,r3
     cbc:	103fef1e 	bne	r2,zero,c7c <_gp+0xfffe6910>
     cc0:	d8c02817 	ldw	r3,160(sp)
     cc4:	dc402917 	ldw	r17,164(sp)
     cc8:	b011883a 	mov	r8,r22
     ccc:	1c07c83a 	sub	r3,r3,r16
     cd0:	d8c02b15 	stw	r3,172(sp)
     cd4:	00005f06 	br	e54 <___vfprintf_internal_r+0x75c>
     cd8:	8025883a 	mov	r18,r16
     cdc:	dc002903 	ldbu	r16,164(sp)
     ce0:	e011883a 	mov	r8,fp
     ce4:	84003fcc 	andi	r16,r16,255
     ce8:	80071e1e 	bne	r16,zero,2964 <___vfprintf_internal_r+0x226c>
     cec:	9080020c 	andi	r2,r18,8
     cf0:	1004af26 	beq	r2,zero,1fb0 <___vfprintf_internal_r+0x18b8>
     cf4:	d9002e17 	ldw	r4,184(sp)
     cf8:	d9402e17 	ldw	r5,184(sp)
     cfc:	d8802e17 	ldw	r2,184(sp)
     d00:	21000017 	ldw	r4,0(r4)
     d04:	29400117 	ldw	r5,4(r5)
     d08:	10800204 	addi	r2,r2,8
     d0c:	d9003615 	stw	r4,216(sp)
     d10:	d9403815 	stw	r5,224(sp)
     d14:	d8802e15 	stw	r2,184(sp)
     d18:	d9003617 	ldw	r4,216(sp)
     d1c:	d9403817 	ldw	r5,224(sp)
     d20:	da003d15 	stw	r8,244(sp)
     d24:	04000044 	movi	r16,1
     d28:	0006f740 	call	6f74 <__fpclassifyd>
     d2c:	da003d17 	ldw	r8,244(sp)
     d30:	1404441e 	bne	r2,r16,1e44 <___vfprintf_internal_r+0x174c>
     d34:	d9003617 	ldw	r4,216(sp)
     d38:	d9403817 	ldw	r5,224(sp)
     d3c:	000d883a 	mov	r6,zero
     d40:	000f883a 	mov	r7,zero
     d44:	000c00c0 	call	c00c <__ledf2>
     d48:	da003d17 	ldw	r8,244(sp)
     d4c:	1005e316 	blt	r2,zero,24dc <___vfprintf_internal_r+0x1de4>
     d50:	df002783 	ldbu	fp,158(sp)
     d54:	008011c4 	movi	r2,71
     d58:	1445580e 	bge	r2,r17,22bc <___vfprintf_internal_r+0x1bc4>
     d5c:	04000074 	movhi	r16,1
     d60:	84017404 	addi	r16,r16,1488
     d64:	00c000c4 	movi	r3,3
     d68:	00bfdfc4 	movi	r2,-129
     d6c:	d8c02915 	stw	r3,164(sp)
     d70:	90a4703a 	and	r18,r18,r2
     d74:	d8c02b15 	stw	r3,172(sp)
     d78:	d8002a15 	stw	zero,168(sp)
     d7c:	d8003215 	stw	zero,200(sp)
     d80:	00003a06 	br	e6c <___vfprintf_internal_r+0x774>
     d84:	84000214 	ori	r16,r16,8
     d88:	ac400007 	ldb	r17,0(r21)
     d8c:	003ebc06 	br	880 <_gp+0xfffe6514>
     d90:	8025883a 	mov	r18,r16
     d94:	dc002903 	ldbu	r16,164(sp)
     d98:	e011883a 	mov	r8,fp
     d9c:	84003fcc 	andi	r16,r16,255
     da0:	8007001e 	bne	r16,zero,29a4 <___vfprintf_internal_r+0x22ac>
     da4:	94800414 	ori	r18,r18,16
     da8:	9080080c 	andi	r2,r18,32
     dac:	1002fa26 	beq	r2,zero,1998 <___vfprintf_internal_r+0x12a0>
     db0:	d9002e17 	ldw	r4,184(sp)
     db4:	d9402a17 	ldw	r5,168(sp)
     db8:	d8002785 	stb	zero,158(sp)
     dbc:	20800204 	addi	r2,r4,8
     dc0:	24c00017 	ldw	r19,0(r4)
     dc4:	25800117 	ldw	r22,4(r4)
     dc8:	2804b116 	blt	r5,zero,2090 <___vfprintf_internal_r+0x1998>
     dcc:	013fdfc4 	movi	r4,-129
     dd0:	9d86b03a 	or	r3,r19,r22
     dd4:	d8802e15 	stw	r2,184(sp)
     dd8:	9124703a 	and	r18,r18,r4
     ddc:	1802fb1e 	bne	r3,zero,19cc <___vfprintf_internal_r+0x12d4>
     de0:	d8c02a17 	ldw	r3,168(sp)
     de4:	0039883a 	mov	fp,zero
     de8:	1805e526 	beq	r3,zero,2580 <___vfprintf_internal_r+0x1e88>
     dec:	0027883a 	mov	r19,zero
     df0:	002d883a 	mov	r22,zero
     df4:	dc001e04 	addi	r16,sp,120
     df8:	9806d0fa 	srli	r3,r19,3
     dfc:	b008977a 	slli	r4,r22,29
     e00:	b02cd0fa 	srli	r22,r22,3
     e04:	9cc001cc 	andi	r19,r19,7
     e08:	98800c04 	addi	r2,r19,48
     e0c:	843fffc4 	addi	r16,r16,-1
     e10:	20e6b03a 	or	r19,r4,r3
     e14:	80800005 	stb	r2,0(r16)
     e18:	9d86b03a 	or	r3,r19,r22
     e1c:	183ff61e 	bne	r3,zero,df8 <_gp+0xfffe6a8c>
     e20:	90c0004c 	andi	r3,r18,1
     e24:	18014126 	beq	r3,zero,132c <___vfprintf_internal_r+0xc34>
     e28:	10803fcc 	andi	r2,r2,255
     e2c:	1080201c 	xori	r2,r2,128
     e30:	10bfe004 	addi	r2,r2,-128
     e34:	00c00c04 	movi	r3,48
     e38:	10c13c26 	beq	r2,r3,132c <___vfprintf_internal_r+0xc34>
     e3c:	80ffffc5 	stb	r3,-1(r16)
     e40:	d8c02817 	ldw	r3,160(sp)
     e44:	80bfffc4 	addi	r2,r16,-1
     e48:	1021883a 	mov	r16,r2
     e4c:	1887c83a 	sub	r3,r3,r2
     e50:	d8c02b15 	stw	r3,172(sp)
     e54:	d8802b17 	ldw	r2,172(sp)
     e58:	d9002a17 	ldw	r4,168(sp)
     e5c:	1100010e 	bge	r2,r4,e64 <___vfprintf_internal_r+0x76c>
     e60:	2005883a 	mov	r2,r4
     e64:	d8802915 	stw	r2,164(sp)
     e68:	d8003215 	stw	zero,200(sp)
     e6c:	e7003fcc 	andi	fp,fp,255
     e70:	e700201c 	xori	fp,fp,128
     e74:	e73fe004 	addi	fp,fp,-128
     e78:	e0000326 	beq	fp,zero,e88 <___vfprintf_internal_r+0x790>
     e7c:	d8c02917 	ldw	r3,164(sp)
     e80:	18c00044 	addi	r3,r3,1
     e84:	d8c02915 	stw	r3,164(sp)
     e88:	90c0008c 	andi	r3,r18,2
     e8c:	d8c02c15 	stw	r3,176(sp)
     e90:	18000326 	beq	r3,zero,ea0 <___vfprintf_internal_r+0x7a8>
     e94:	d8c02917 	ldw	r3,164(sp)
     e98:	18c00084 	addi	r3,r3,2
     e9c:	d8c02915 	stw	r3,164(sp)
     ea0:	90c0210c 	andi	r3,r18,132
     ea4:	d8c03015 	stw	r3,192(sp)
     ea8:	1801c51e 	bne	r3,zero,15c0 <___vfprintf_internal_r+0xec8>
     eac:	d9003117 	ldw	r4,196(sp)
     eb0:	d8c02917 	ldw	r3,164(sp)
     eb4:	20e7c83a 	sub	r19,r4,r3
     eb8:	04c1c10e 	bge	zero,r19,15c0 <___vfprintf_internal_r+0xec8>
     ebc:	02400404 	movi	r9,16
     ec0:	d8c02017 	ldw	r3,128(sp)
     ec4:	d8801f17 	ldw	r2,124(sp)
     ec8:	4cc52f0e 	bge	r9,r19,2388 <___vfprintf_internal_r+0x1c90>
     ecc:	01400074 	movhi	r5,1
     ed0:	29418784 	addi	r5,r5,1566
     ed4:	dc403b15 	stw	r17,236(sp)
     ed8:	d9403515 	stw	r5,212(sp)
     edc:	9823883a 	mov	r17,r19
     ee0:	482d883a 	mov	r22,r9
     ee4:	9027883a 	mov	r19,r18
     ee8:	070001c4 	movi	fp,7
     eec:	8025883a 	mov	r18,r16
     ef0:	dc002d17 	ldw	r16,180(sp)
     ef4:	00000306 	br	f04 <___vfprintf_internal_r+0x80c>
     ef8:	8c7ffc04 	addi	r17,r17,-16
     efc:	42000204 	addi	r8,r8,8
     f00:	b440130e 	bge	r22,r17,f50 <___vfprintf_internal_r+0x858>
     f04:	01000074 	movhi	r4,1
     f08:	18c00404 	addi	r3,r3,16
     f0c:	10800044 	addi	r2,r2,1
     f10:	21018784 	addi	r4,r4,1566
     f14:	41000015 	stw	r4,0(r8)
     f18:	45800115 	stw	r22,4(r8)
     f1c:	d8c02015 	stw	r3,128(sp)
     f20:	d8801f15 	stw	r2,124(sp)
     f24:	e0bff40e 	bge	fp,r2,ef8 <_gp+0xfffe6b8c>
     f28:	d9801e04 	addi	r6,sp,120
     f2c:	b80b883a 	mov	r5,r23
     f30:	8009883a 	mov	r4,r16
     f34:	00073e80 	call	73e8 <__sprint_r>
     f38:	103ef31e 	bne	r2,zero,b08 <_gp+0xfffe679c>
     f3c:	8c7ffc04 	addi	r17,r17,-16
     f40:	d8c02017 	ldw	r3,128(sp)
     f44:	d8801f17 	ldw	r2,124(sp)
     f48:	da000404 	addi	r8,sp,16
     f4c:	b47fed16 	blt	r22,r17,f04 <_gp+0xfffe6b98>
     f50:	9021883a 	mov	r16,r18
     f54:	9825883a 	mov	r18,r19
     f58:	8827883a 	mov	r19,r17
     f5c:	dc403b17 	ldw	r17,236(sp)
     f60:	d9403517 	ldw	r5,212(sp)
     f64:	98c7883a 	add	r3,r19,r3
     f68:	10800044 	addi	r2,r2,1
     f6c:	41400015 	stw	r5,0(r8)
     f70:	44c00115 	stw	r19,4(r8)
     f74:	d8c02015 	stw	r3,128(sp)
     f78:	d8801f15 	stw	r2,124(sp)
     f7c:	010001c4 	movi	r4,7
     f80:	2082c516 	blt	r4,r2,1a98 <___vfprintf_internal_r+0x13a0>
     f84:	df002787 	ldb	fp,158(sp)
     f88:	42000204 	addi	r8,r8,8
     f8c:	e0000c26 	beq	fp,zero,fc0 <___vfprintf_internal_r+0x8c8>
     f90:	d8801f17 	ldw	r2,124(sp)
     f94:	d9002784 	addi	r4,sp,158
     f98:	18c00044 	addi	r3,r3,1
     f9c:	10800044 	addi	r2,r2,1
     fa0:	41000015 	stw	r4,0(r8)
     fa4:	01000044 	movi	r4,1
     fa8:	41000115 	stw	r4,4(r8)
     fac:	d8c02015 	stw	r3,128(sp)
     fb0:	d8801f15 	stw	r2,124(sp)
     fb4:	010001c4 	movi	r4,7
     fb8:	20825e16 	blt	r4,r2,1934 <___vfprintf_internal_r+0x123c>
     fbc:	42000204 	addi	r8,r8,8
     fc0:	d8802c17 	ldw	r2,176(sp)
     fc4:	10000c26 	beq	r2,zero,ff8 <___vfprintf_internal_r+0x900>
     fc8:	d8801f17 	ldw	r2,124(sp)
     fcc:	d9002704 	addi	r4,sp,156
     fd0:	18c00084 	addi	r3,r3,2
     fd4:	10800044 	addi	r2,r2,1
     fd8:	41000015 	stw	r4,0(r8)
     fdc:	01000084 	movi	r4,2
     fe0:	41000115 	stw	r4,4(r8)
     fe4:	d8c02015 	stw	r3,128(sp)
     fe8:	d8801f15 	stw	r2,124(sp)
     fec:	010001c4 	movi	r4,7
     ff0:	20825816 	blt	r4,r2,1954 <___vfprintf_internal_r+0x125c>
     ff4:	42000204 	addi	r8,r8,8
     ff8:	d9003017 	ldw	r4,192(sp)
     ffc:	00802004 	movi	r2,128
    1000:	2081bb26 	beq	r4,r2,16f0 <___vfprintf_internal_r+0xff8>
    1004:	d9402a17 	ldw	r5,168(sp)
    1008:	d8802b17 	ldw	r2,172(sp)
    100c:	28adc83a 	sub	r22,r5,r2
    1010:	0580310e 	bge	zero,r22,10d8 <___vfprintf_internal_r+0x9e0>
    1014:	07000404 	movi	fp,16
    1018:	d8801f17 	ldw	r2,124(sp)
    101c:	e584360e 	bge	fp,r22,20f8 <___vfprintf_internal_r+0x1a00>
    1020:	01400074 	movhi	r5,1
    1024:	29418384 	addi	r5,r5,1550
    1028:	dc402a15 	stw	r17,168(sp)
    102c:	d9402c15 	stw	r5,176(sp)
    1030:	b023883a 	mov	r17,r22
    1034:	04c001c4 	movi	r19,7
    1038:	a82d883a 	mov	r22,r21
    103c:	902b883a 	mov	r21,r18
    1040:	8025883a 	mov	r18,r16
    1044:	dc002d17 	ldw	r16,180(sp)
    1048:	00000306 	br	1058 <___vfprintf_internal_r+0x960>
    104c:	8c7ffc04 	addi	r17,r17,-16
    1050:	42000204 	addi	r8,r8,8
    1054:	e440110e 	bge	fp,r17,109c <___vfprintf_internal_r+0x9a4>
    1058:	18c00404 	addi	r3,r3,16
    105c:	10800044 	addi	r2,r2,1
    1060:	45000015 	stw	r20,0(r8)
    1064:	47000115 	stw	fp,4(r8)
    1068:	d8c02015 	stw	r3,128(sp)
    106c:	d8801f15 	stw	r2,124(sp)
    1070:	98bff60e 	bge	r19,r2,104c <_gp+0xfffe6ce0>
    1074:	d9801e04 	addi	r6,sp,120
    1078:	b80b883a 	mov	r5,r23
    107c:	8009883a 	mov	r4,r16
    1080:	00073e80 	call	73e8 <__sprint_r>
    1084:	103ea01e 	bne	r2,zero,b08 <_gp+0xfffe679c>
    1088:	8c7ffc04 	addi	r17,r17,-16
    108c:	d8c02017 	ldw	r3,128(sp)
    1090:	d8801f17 	ldw	r2,124(sp)
    1094:	da000404 	addi	r8,sp,16
    1098:	e47fef16 	blt	fp,r17,1058 <_gp+0xfffe6cec>
    109c:	9021883a 	mov	r16,r18
    10a0:	a825883a 	mov	r18,r21
    10a4:	b02b883a 	mov	r21,r22
    10a8:	882d883a 	mov	r22,r17
    10ac:	dc402a17 	ldw	r17,168(sp)
    10b0:	d9002c17 	ldw	r4,176(sp)
    10b4:	1d87883a 	add	r3,r3,r22
    10b8:	10800044 	addi	r2,r2,1
    10bc:	41000015 	stw	r4,0(r8)
    10c0:	45800115 	stw	r22,4(r8)
    10c4:	d8c02015 	stw	r3,128(sp)
    10c8:	d8801f15 	stw	r2,124(sp)
    10cc:	010001c4 	movi	r4,7
    10d0:	20821016 	blt	r4,r2,1914 <___vfprintf_internal_r+0x121c>
    10d4:	42000204 	addi	r8,r8,8
    10d8:	9080400c 	andi	r2,r18,256
    10dc:	10013a1e 	bne	r2,zero,15c8 <___vfprintf_internal_r+0xed0>
    10e0:	d9402b17 	ldw	r5,172(sp)
    10e4:	d8801f17 	ldw	r2,124(sp)
    10e8:	44000015 	stw	r16,0(r8)
    10ec:	1947883a 	add	r3,r3,r5
    10f0:	10800044 	addi	r2,r2,1
    10f4:	41400115 	stw	r5,4(r8)
    10f8:	d8c02015 	stw	r3,128(sp)
    10fc:	d8801f15 	stw	r2,124(sp)
    1100:	010001c4 	movi	r4,7
    1104:	2081f516 	blt	r4,r2,18dc <___vfprintf_internal_r+0x11e4>
    1108:	42000204 	addi	r8,r8,8
    110c:	9480010c 	andi	r18,r18,4
    1110:	90003226 	beq	r18,zero,11dc <___vfprintf_internal_r+0xae4>
    1114:	d9403117 	ldw	r5,196(sp)
    1118:	d8802917 	ldw	r2,164(sp)
    111c:	28a1c83a 	sub	r16,r5,r2
    1120:	04002e0e 	bge	zero,r16,11dc <___vfprintf_internal_r+0xae4>
    1124:	04400404 	movi	r17,16
    1128:	d8801f17 	ldw	r2,124(sp)
    112c:	8c04c40e 	bge	r17,r16,2440 <___vfprintf_internal_r+0x1d48>
    1130:	01400074 	movhi	r5,1
    1134:	29418784 	addi	r5,r5,1566
    1138:	d9403515 	stw	r5,212(sp)
    113c:	048001c4 	movi	r18,7
    1140:	dcc02d17 	ldw	r19,180(sp)
    1144:	00000306 	br	1154 <___vfprintf_internal_r+0xa5c>
    1148:	843ffc04 	addi	r16,r16,-16
    114c:	42000204 	addi	r8,r8,8
    1150:	8c00130e 	bge	r17,r16,11a0 <___vfprintf_internal_r+0xaa8>
    1154:	01000074 	movhi	r4,1
    1158:	18c00404 	addi	r3,r3,16
    115c:	10800044 	addi	r2,r2,1
    1160:	21018784 	addi	r4,r4,1566
    1164:	41000015 	stw	r4,0(r8)
    1168:	44400115 	stw	r17,4(r8)
    116c:	d8c02015 	stw	r3,128(sp)
    1170:	d8801f15 	stw	r2,124(sp)
    1174:	90bff40e 	bge	r18,r2,1148 <_gp+0xfffe6ddc>
    1178:	d9801e04 	addi	r6,sp,120
    117c:	b80b883a 	mov	r5,r23
    1180:	9809883a 	mov	r4,r19
    1184:	00073e80 	call	73e8 <__sprint_r>
    1188:	103e5f1e 	bne	r2,zero,b08 <_gp+0xfffe679c>
    118c:	843ffc04 	addi	r16,r16,-16
    1190:	d8c02017 	ldw	r3,128(sp)
    1194:	d8801f17 	ldw	r2,124(sp)
    1198:	da000404 	addi	r8,sp,16
    119c:	8c3fed16 	blt	r17,r16,1154 <_gp+0xfffe6de8>
    11a0:	d9403517 	ldw	r5,212(sp)
    11a4:	1c07883a 	add	r3,r3,r16
    11a8:	10800044 	addi	r2,r2,1
    11ac:	41400015 	stw	r5,0(r8)
    11b0:	44000115 	stw	r16,4(r8)
    11b4:	d8c02015 	stw	r3,128(sp)
    11b8:	d8801f15 	stw	r2,124(sp)
    11bc:	010001c4 	movi	r4,7
    11c0:	2080060e 	bge	r4,r2,11dc <___vfprintf_internal_r+0xae4>
    11c4:	d9002d17 	ldw	r4,180(sp)
    11c8:	d9801e04 	addi	r6,sp,120
    11cc:	b80b883a 	mov	r5,r23
    11d0:	00073e80 	call	73e8 <__sprint_r>
    11d4:	103e4c1e 	bne	r2,zero,b08 <_gp+0xfffe679c>
    11d8:	d8c02017 	ldw	r3,128(sp)
    11dc:	d8803117 	ldw	r2,196(sp)
    11e0:	d9002917 	ldw	r4,164(sp)
    11e4:	1100010e 	bge	r2,r4,11ec <___vfprintf_internal_r+0xaf4>
    11e8:	2005883a 	mov	r2,r4
    11ec:	d9402f17 	ldw	r5,188(sp)
    11f0:	288b883a 	add	r5,r5,r2
    11f4:	d9402f15 	stw	r5,188(sp)
    11f8:	1801c01e 	bne	r3,zero,18fc <___vfprintf_internal_r+0x1204>
    11fc:	a8800007 	ldb	r2,0(r21)
    1200:	d8001f15 	stw	zero,124(sp)
    1204:	da000404 	addi	r8,sp,16
    1208:	103d751e 	bne	r2,zero,7e0 <_gp+0xfffe6474>
    120c:	a823883a 	mov	r17,r21
    1210:	003d8b06 	br	840 <_gp+0xfffe64d4>
    1214:	8025883a 	mov	r18,r16
    1218:	dc002903 	ldbu	r16,164(sp)
    121c:	e011883a 	mov	r8,fp
    1220:	84003fcc 	andi	r16,r16,255
    1224:	8005e51e 	bne	r16,zero,29bc <___vfprintf_internal_r+0x22c4>
    1228:	94800414 	ori	r18,r18,16
    122c:	9080080c 	andi	r2,r18,32
    1230:	10022b26 	beq	r2,zero,1ae0 <___vfprintf_internal_r+0x13e8>
    1234:	d9002e17 	ldw	r4,184(sp)
    1238:	d9402a17 	ldw	r5,168(sp)
    123c:	d8002785 	stb	zero,158(sp)
    1240:	20c00204 	addi	r3,r4,8
    1244:	24c00017 	ldw	r19,0(r4)
    1248:	25800117 	ldw	r22,4(r4)
    124c:	28042e16 	blt	r5,zero,2308 <___vfprintf_internal_r+0x1c10>
    1250:	013fdfc4 	movi	r4,-129
    1254:	9d84b03a 	or	r2,r19,r22
    1258:	d8c02e15 	stw	r3,184(sp)
    125c:	9124703a 	and	r18,r18,r4
    1260:	0039883a 	mov	fp,zero
    1264:	103e801e 	bne	r2,zero,c68 <_gp+0xfffe68fc>
    1268:	d9002a17 	ldw	r4,168(sp)
    126c:	2002e01e 	bne	r4,zero,1df0 <___vfprintf_internal_r+0x16f8>
    1270:	d8002a15 	stw	zero,168(sp)
    1274:	d8002b15 	stw	zero,172(sp)
    1278:	dc001e04 	addi	r16,sp,120
    127c:	003ef506 	br	e54 <_gp+0xfffe6ae8>
    1280:	8025883a 	mov	r18,r16
    1284:	dc002903 	ldbu	r16,164(sp)
    1288:	e011883a 	mov	r8,fp
    128c:	84003fcc 	andi	r16,r16,255
    1290:	8005ba1e 	bne	r16,zero,297c <___vfprintf_internal_r+0x2284>
    1294:	01000074 	movhi	r4,1
    1298:	21017704 	addi	r4,r4,1500
    129c:	d9003915 	stw	r4,228(sp)
    12a0:	9080080c 	andi	r2,r18,32
    12a4:	10006126 	beq	r2,zero,142c <___vfprintf_internal_r+0xd34>
    12a8:	d9402e17 	ldw	r5,184(sp)
    12ac:	2cc00017 	ldw	r19,0(r5)
    12b0:	2d800117 	ldw	r22,4(r5)
    12b4:	29400204 	addi	r5,r5,8
    12b8:	d9402e15 	stw	r5,184(sp)
    12bc:	9080004c 	andi	r2,r18,1
    12c0:	1001ac26 	beq	r2,zero,1974 <___vfprintf_internal_r+0x127c>
    12c4:	9d84b03a 	or	r2,r19,r22
    12c8:	10038526 	beq	r2,zero,20e0 <___vfprintf_internal_r+0x19e8>
    12cc:	d8c02a17 	ldw	r3,168(sp)
    12d0:	00800c04 	movi	r2,48
    12d4:	d8802705 	stb	r2,156(sp)
    12d8:	dc402745 	stb	r17,157(sp)
    12dc:	d8002785 	stb	zero,158(sp)
    12e0:	90800094 	ori	r2,r18,2
    12e4:	18047916 	blt	r3,zero,24cc <___vfprintf_internal_r+0x1dd4>
    12e8:	00bfdfc4 	movi	r2,-129
    12ec:	90a4703a 	and	r18,r18,r2
    12f0:	94800094 	ori	r18,r18,2
    12f4:	0039883a 	mov	fp,zero
    12f8:	d9003917 	ldw	r4,228(sp)
    12fc:	dc001e04 	addi	r16,sp,120
    1300:	988003cc 	andi	r2,r19,15
    1304:	b006973a 	slli	r3,r22,28
    1308:	2085883a 	add	r2,r4,r2
    130c:	9826d13a 	srli	r19,r19,4
    1310:	10800003 	ldbu	r2,0(r2)
    1314:	b02cd13a 	srli	r22,r22,4
    1318:	843fffc4 	addi	r16,r16,-1
    131c:	1ce6b03a 	or	r19,r3,r19
    1320:	80800005 	stb	r2,0(r16)
    1324:	9d84b03a 	or	r2,r19,r22
    1328:	103ff51e 	bne	r2,zero,1300 <_gp+0xfffe6f94>
    132c:	d8c02817 	ldw	r3,160(sp)
    1330:	1c07c83a 	sub	r3,r3,r16
    1334:	d8c02b15 	stw	r3,172(sp)
    1338:	003ec606 	br	e54 <_gp+0xfffe6ae8>
    133c:	8025883a 	mov	r18,r16
    1340:	dc002903 	ldbu	r16,164(sp)
    1344:	e011883a 	mov	r8,fp
    1348:	84003fcc 	andi	r16,r16,255
    134c:	803e9626 	beq	r16,zero,da8 <_gp+0xfffe6a3c>
    1350:	d8c02b03 	ldbu	r3,172(sp)
    1354:	d8c02785 	stb	r3,158(sp)
    1358:	003e9306 	br	da8 <_gp+0xfffe6a3c>
    135c:	00c00044 	movi	r3,1
    1360:	d8c02905 	stb	r3,164(sp)
    1364:	00c00ac4 	movi	r3,43
    1368:	d8c02b05 	stb	r3,172(sp)
    136c:	ac400007 	ldb	r17,0(r21)
    1370:	003d4306 	br	880 <_gp+0xfffe6514>
    1374:	84000814 	ori	r16,r16,32
    1378:	ac400007 	ldb	r17,0(r21)
    137c:	003d4006 	br	880 <_gp+0xfffe6514>
    1380:	d8802e17 	ldw	r2,184(sp)
    1384:	8025883a 	mov	r18,r16
    1388:	d8002785 	stb	zero,158(sp)
    138c:	14000017 	ldw	r16,0(r2)
    1390:	e011883a 	mov	r8,fp
    1394:	14c00104 	addi	r19,r2,4
    1398:	80042d26 	beq	r16,zero,2450 <___vfprintf_internal_r+0x1d58>
    139c:	d8c02a17 	ldw	r3,168(sp)
    13a0:	1803e416 	blt	r3,zero,2334 <___vfprintf_internal_r+0x1c3c>
    13a4:	180d883a 	mov	r6,r3
    13a8:	000b883a 	mov	r5,zero
    13ac:	8009883a 	mov	r4,r16
    13b0:	df003d15 	stw	fp,244(sp)
    13b4:	0005b680 	call	5b68 <memchr>
    13b8:	da003d17 	ldw	r8,244(sp)
    13bc:	10046826 	beq	r2,zero,2560 <___vfprintf_internal_r+0x1e68>
    13c0:	1405c83a 	sub	r2,r2,r16
    13c4:	d8802b15 	stw	r2,172(sp)
    13c8:	1003e016 	blt	r2,zero,234c <___vfprintf_internal_r+0x1c54>
    13cc:	df002783 	ldbu	fp,158(sp)
    13d0:	d8802915 	stw	r2,164(sp)
    13d4:	dcc02e15 	stw	r19,184(sp)
    13d8:	d8002a15 	stw	zero,168(sp)
    13dc:	d8003215 	stw	zero,200(sp)
    13e0:	003ea206 	br	e6c <_gp+0xfffe6b00>
    13e4:	8025883a 	mov	r18,r16
    13e8:	dc002903 	ldbu	r16,164(sp)
    13ec:	e011883a 	mov	r8,fp
    13f0:	84003fcc 	andi	r16,r16,255
    13f4:	803f8d26 	beq	r16,zero,122c <_gp+0xfffe6ec0>
    13f8:	d8c02b03 	ldbu	r3,172(sp)
    13fc:	d8c02785 	stb	r3,158(sp)
    1400:	003f8a06 	br	122c <_gp+0xfffe6ec0>
    1404:	8025883a 	mov	r18,r16
    1408:	dc002903 	ldbu	r16,164(sp)
    140c:	e011883a 	mov	r8,fp
    1410:	84003fcc 	andi	r16,r16,255
    1414:	8005661e 	bne	r16,zero,29b0 <___vfprintf_internal_r+0x22b8>
    1418:	01000074 	movhi	r4,1
    141c:	21017c04 	addi	r4,r4,1520
    1420:	d9003915 	stw	r4,228(sp)
    1424:	9080080c 	andi	r2,r18,32
    1428:	103f9f1e 	bne	r2,zero,12a8 <_gp+0xfffe6f3c>
    142c:	9080040c 	andi	r2,r18,16
    1430:	1002eb26 	beq	r2,zero,1fe0 <___vfprintf_internal_r+0x18e8>
    1434:	d8802e17 	ldw	r2,184(sp)
    1438:	002d883a 	mov	r22,zero
    143c:	14c00017 	ldw	r19,0(r2)
    1440:	10800104 	addi	r2,r2,4
    1444:	d8802e15 	stw	r2,184(sp)
    1448:	003f9c06 	br	12bc <_gp+0xfffe6f50>
    144c:	d8802b07 	ldb	r2,172(sp)
    1450:	1002e11e 	bne	r2,zero,1fd8 <___vfprintf_internal_r+0x18e0>
    1454:	00c00044 	movi	r3,1
    1458:	d8c02905 	stb	r3,164(sp)
    145c:	00c00804 	movi	r3,32
    1460:	d8c02b05 	stb	r3,172(sp)
    1464:	ac400007 	ldb	r17,0(r21)
    1468:	003d0506 	br	880 <_gp+0xfffe6514>
    146c:	84000054 	ori	r16,r16,1
    1470:	ac400007 	ldb	r17,0(r21)
    1474:	003d0206 	br	880 <_gp+0xfffe6514>
    1478:	8025883a 	mov	r18,r16
    147c:	dc002903 	ldbu	r16,164(sp)
    1480:	e011883a 	mov	r8,fp
    1484:	84003fcc 	andi	r16,r16,255
    1488:	803de726 	beq	r16,zero,c28 <_gp+0xfffe68bc>
    148c:	d8c02b03 	ldbu	r3,172(sp)
    1490:	d8c02785 	stb	r3,158(sp)
    1494:	003de406 	br	c28 <_gp+0xfffe68bc>
    1498:	84001014 	ori	r16,r16,64
    149c:	ac400007 	ldb	r17,0(r21)
    14a0:	003cf706 	br	880 <_gp+0xfffe6514>
    14a4:	ac400007 	ldb	r17,0(r21)
    14a8:	00801b04 	movi	r2,108
    14ac:	88838f26 	beq	r17,r2,22ec <___vfprintf_internal_r+0x1bf4>
    14b0:	84000414 	ori	r16,r16,16
    14b4:	003cf206 	br	880 <_gp+0xfffe6514>
    14b8:	8025883a 	mov	r18,r16
    14bc:	dc002903 	ldbu	r16,164(sp)
    14c0:	e011883a 	mov	r8,fp
    14c4:	84003fcc 	andi	r16,r16,255
    14c8:	80053f1e 	bne	r16,zero,29c8 <___vfprintf_internal_r+0x22d0>
    14cc:	9080080c 	andi	r2,r18,32
    14d0:	1002d226 	beq	r2,zero,201c <___vfprintf_internal_r+0x1924>
    14d4:	d9002e17 	ldw	r4,184(sp)
    14d8:	d9402f17 	ldw	r5,188(sp)
    14dc:	20800017 	ldw	r2,0(r4)
    14e0:	2807d7fa 	srai	r3,r5,31
    14e4:	21000104 	addi	r4,r4,4
    14e8:	d9002e15 	stw	r4,184(sp)
    14ec:	11400015 	stw	r5,0(r2)
    14f0:	10c00115 	stw	r3,4(r2)
    14f4:	003cb806 	br	7d8 <_gp+0xfffe646c>
    14f8:	d8c02e17 	ldw	r3,184(sp)
    14fc:	d9002e17 	ldw	r4,184(sp)
    1500:	8025883a 	mov	r18,r16
    1504:	18800017 	ldw	r2,0(r3)
    1508:	21000104 	addi	r4,r4,4
    150c:	00c00044 	movi	r3,1
    1510:	e011883a 	mov	r8,fp
    1514:	d8c02915 	stw	r3,164(sp)
    1518:	d8002785 	stb	zero,158(sp)
    151c:	d8801405 	stb	r2,80(sp)
    1520:	d9002e15 	stw	r4,184(sp)
    1524:	d8c02b15 	stw	r3,172(sp)
    1528:	d8002a15 	stw	zero,168(sp)
    152c:	d8003215 	stw	zero,200(sp)
    1530:	dc001404 	addi	r16,sp,80
    1534:	0039883a 	mov	fp,zero
    1538:	003e5306 	br	e88 <_gp+0xfffe6b1c>
    153c:	01000074 	movhi	r4,1
    1540:	21017c04 	addi	r4,r4,1520
    1544:	0039883a 	mov	fp,zero
    1548:	d9003915 	stw	r4,228(sp)
    154c:	04401e04 	movi	r17,120
    1550:	003f6906 	br	12f8 <_gp+0xfffe6f8c>
    1554:	8025883a 	mov	r18,r16
    1558:	dc002903 	ldbu	r16,164(sp)
    155c:	e011883a 	mov	r8,fp
    1560:	84003fcc 	andi	r16,r16,255
    1564:	8005081e 	bne	r16,zero,2988 <___vfprintf_internal_r+0x2290>
    1568:	883d6126 	beq	r17,zero,af0 <_gp+0xfffe6784>
    156c:	00c00044 	movi	r3,1
    1570:	d8c02915 	stw	r3,164(sp)
    1574:	dc401405 	stb	r17,80(sp)
    1578:	d8002785 	stb	zero,158(sp)
    157c:	003fe906 	br	1524 <_gp+0xfffe71b8>
    1580:	01400074 	movhi	r5,1
    1584:	29417c04 	addi	r5,r5,1520
    1588:	d9403915 	stw	r5,228(sp)
    158c:	d8c02e15 	stw	r3,184(sp)
    1590:	1025883a 	mov	r18,r2
    1594:	04401e04 	movi	r17,120
    1598:	9d84b03a 	or	r2,r19,r22
    159c:	1000fc1e 	bne	r2,zero,1990 <___vfprintf_internal_r+0x1298>
    15a0:	0039883a 	mov	fp,zero
    15a4:	00800084 	movi	r2,2
    15a8:	10803fcc 	andi	r2,r2,255
    15ac:	00c00044 	movi	r3,1
    15b0:	10c20f26 	beq	r2,r3,1df0 <___vfprintf_internal_r+0x16f8>
    15b4:	00c00084 	movi	r3,2
    15b8:	10fd3326 	beq	r2,r3,a88 <_gp+0xfffe671c>
    15bc:	003e0b06 	br	dec <_gp+0xfffe6a80>
    15c0:	d8c02017 	ldw	r3,128(sp)
    15c4:	003e7106 	br	f8c <_gp+0xfffe6c20>
    15c8:	00801944 	movi	r2,101
    15cc:	14407e0e 	bge	r2,r17,17c8 <___vfprintf_internal_r+0x10d0>
    15d0:	d9003617 	ldw	r4,216(sp)
    15d4:	d9403817 	ldw	r5,224(sp)
    15d8:	000d883a 	mov	r6,zero
    15dc:	000f883a 	mov	r7,zero
    15e0:	d8c03c15 	stw	r3,240(sp)
    15e4:	da003d15 	stw	r8,244(sp)
    15e8:	000bea80 	call	bea8 <__eqdf2>
    15ec:	d8c03c17 	ldw	r3,240(sp)
    15f0:	da003d17 	ldw	r8,244(sp)
    15f4:	1000f71e 	bne	r2,zero,19d4 <___vfprintf_internal_r+0x12dc>
    15f8:	d8801f17 	ldw	r2,124(sp)
    15fc:	01000074 	movhi	r4,1
    1600:	21018304 	addi	r4,r4,1548
    1604:	18c00044 	addi	r3,r3,1
    1608:	10800044 	addi	r2,r2,1
    160c:	41000015 	stw	r4,0(r8)
    1610:	01000044 	movi	r4,1
    1614:	41000115 	stw	r4,4(r8)
    1618:	d8c02015 	stw	r3,128(sp)
    161c:	d8801f15 	stw	r2,124(sp)
    1620:	010001c4 	movi	r4,7
    1624:	2082b816 	blt	r4,r2,2108 <___vfprintf_internal_r+0x1a10>
    1628:	42000204 	addi	r8,r8,8
    162c:	d8802617 	ldw	r2,152(sp)
    1630:	d9403317 	ldw	r5,204(sp)
    1634:	11400216 	blt	r2,r5,1640 <___vfprintf_internal_r+0xf48>
    1638:	9080004c 	andi	r2,r18,1
    163c:	103eb326 	beq	r2,zero,110c <_gp+0xfffe6da0>
    1640:	d8803717 	ldw	r2,220(sp)
    1644:	d9003417 	ldw	r4,208(sp)
    1648:	d9403717 	ldw	r5,220(sp)
    164c:	1887883a 	add	r3,r3,r2
    1650:	d8801f17 	ldw	r2,124(sp)
    1654:	41000015 	stw	r4,0(r8)
    1658:	41400115 	stw	r5,4(r8)
    165c:	10800044 	addi	r2,r2,1
    1660:	d8c02015 	stw	r3,128(sp)
    1664:	d8801f15 	stw	r2,124(sp)
    1668:	010001c4 	movi	r4,7
    166c:	20832916 	blt	r4,r2,2314 <___vfprintf_internal_r+0x1c1c>
    1670:	42000204 	addi	r8,r8,8
    1674:	d8803317 	ldw	r2,204(sp)
    1678:	143fffc4 	addi	r16,r2,-1
    167c:	043ea30e 	bge	zero,r16,110c <_gp+0xfffe6da0>
    1680:	04400404 	movi	r17,16
    1684:	d8801f17 	ldw	r2,124(sp)
    1688:	8c00880e 	bge	r17,r16,18ac <___vfprintf_internal_r+0x11b4>
    168c:	01400074 	movhi	r5,1
    1690:	29418384 	addi	r5,r5,1550
    1694:	d9402c15 	stw	r5,176(sp)
    1698:	058001c4 	movi	r22,7
    169c:	dcc02d17 	ldw	r19,180(sp)
    16a0:	00000306 	br	16b0 <___vfprintf_internal_r+0xfb8>
    16a4:	42000204 	addi	r8,r8,8
    16a8:	843ffc04 	addi	r16,r16,-16
    16ac:	8c00820e 	bge	r17,r16,18b8 <___vfprintf_internal_r+0x11c0>
    16b0:	18c00404 	addi	r3,r3,16
    16b4:	10800044 	addi	r2,r2,1
    16b8:	45000015 	stw	r20,0(r8)
    16bc:	44400115 	stw	r17,4(r8)
    16c0:	d8c02015 	stw	r3,128(sp)
    16c4:	d8801f15 	stw	r2,124(sp)
    16c8:	b0bff60e 	bge	r22,r2,16a4 <_gp+0xfffe7338>
    16cc:	d9801e04 	addi	r6,sp,120
    16d0:	b80b883a 	mov	r5,r23
    16d4:	9809883a 	mov	r4,r19
    16d8:	00073e80 	call	73e8 <__sprint_r>
    16dc:	103d0a1e 	bne	r2,zero,b08 <_gp+0xfffe679c>
    16e0:	d8c02017 	ldw	r3,128(sp)
    16e4:	d8801f17 	ldw	r2,124(sp)
    16e8:	da000404 	addi	r8,sp,16
    16ec:	003fee06 	br	16a8 <_gp+0xfffe733c>
    16f0:	d9403117 	ldw	r5,196(sp)
    16f4:	d8802917 	ldw	r2,164(sp)
    16f8:	28adc83a 	sub	r22,r5,r2
    16fc:	05be410e 	bge	zero,r22,1004 <_gp+0xfffe6c98>
    1700:	07000404 	movi	fp,16
    1704:	d8801f17 	ldw	r2,124(sp)
    1708:	e5838f0e 	bge	fp,r22,2548 <___vfprintf_internal_r+0x1e50>
    170c:	01400074 	movhi	r5,1
    1710:	29418384 	addi	r5,r5,1550
    1714:	dc403015 	stw	r17,192(sp)
    1718:	d9402c15 	stw	r5,176(sp)
    171c:	b023883a 	mov	r17,r22
    1720:	04c001c4 	movi	r19,7
    1724:	a82d883a 	mov	r22,r21
    1728:	902b883a 	mov	r21,r18
    172c:	8025883a 	mov	r18,r16
    1730:	dc002d17 	ldw	r16,180(sp)
    1734:	00000306 	br	1744 <___vfprintf_internal_r+0x104c>
    1738:	8c7ffc04 	addi	r17,r17,-16
    173c:	42000204 	addi	r8,r8,8
    1740:	e440110e 	bge	fp,r17,1788 <___vfprintf_internal_r+0x1090>
    1744:	18c00404 	addi	r3,r3,16
    1748:	10800044 	addi	r2,r2,1
    174c:	45000015 	stw	r20,0(r8)
    1750:	47000115 	stw	fp,4(r8)
    1754:	d8c02015 	stw	r3,128(sp)
    1758:	d8801f15 	stw	r2,124(sp)
    175c:	98bff60e 	bge	r19,r2,1738 <_gp+0xfffe73cc>
    1760:	d9801e04 	addi	r6,sp,120
    1764:	b80b883a 	mov	r5,r23
    1768:	8009883a 	mov	r4,r16
    176c:	00073e80 	call	73e8 <__sprint_r>
    1770:	103ce51e 	bne	r2,zero,b08 <_gp+0xfffe679c>
    1774:	8c7ffc04 	addi	r17,r17,-16
    1778:	d8c02017 	ldw	r3,128(sp)
    177c:	d8801f17 	ldw	r2,124(sp)
    1780:	da000404 	addi	r8,sp,16
    1784:	e47fef16 	blt	fp,r17,1744 <_gp+0xfffe73d8>
    1788:	9021883a 	mov	r16,r18
    178c:	a825883a 	mov	r18,r21
    1790:	b02b883a 	mov	r21,r22
    1794:	882d883a 	mov	r22,r17
    1798:	dc403017 	ldw	r17,192(sp)
    179c:	d9002c17 	ldw	r4,176(sp)
    17a0:	1d87883a 	add	r3,r3,r22
    17a4:	10800044 	addi	r2,r2,1
    17a8:	41000015 	stw	r4,0(r8)
    17ac:	45800115 	stw	r22,4(r8)
    17b0:	d8c02015 	stw	r3,128(sp)
    17b4:	d8801f15 	stw	r2,124(sp)
    17b8:	010001c4 	movi	r4,7
    17bc:	20818e16 	blt	r4,r2,1df8 <___vfprintf_internal_r+0x1700>
    17c0:	42000204 	addi	r8,r8,8
    17c4:	003e0f06 	br	1004 <_gp+0xfffe6c98>
    17c8:	d9403317 	ldw	r5,204(sp)
    17cc:	00800044 	movi	r2,1
    17d0:	18c00044 	addi	r3,r3,1
    17d4:	1141530e 	bge	r2,r5,1d24 <___vfprintf_internal_r+0x162c>
    17d8:	dc401f17 	ldw	r17,124(sp)
    17dc:	00800044 	movi	r2,1
    17e0:	40800115 	stw	r2,4(r8)
    17e4:	8c400044 	addi	r17,r17,1
    17e8:	44000015 	stw	r16,0(r8)
    17ec:	d8c02015 	stw	r3,128(sp)
    17f0:	dc401f15 	stw	r17,124(sp)
    17f4:	008001c4 	movi	r2,7
    17f8:	14416b16 	blt	r2,r17,1da8 <___vfprintf_internal_r+0x16b0>
    17fc:	42000204 	addi	r8,r8,8
    1800:	d8803717 	ldw	r2,220(sp)
    1804:	d9003417 	ldw	r4,208(sp)
    1808:	8c400044 	addi	r17,r17,1
    180c:	10c7883a 	add	r3,r2,r3
    1810:	40800115 	stw	r2,4(r8)
    1814:	41000015 	stw	r4,0(r8)
    1818:	d8c02015 	stw	r3,128(sp)
    181c:	dc401f15 	stw	r17,124(sp)
    1820:	008001c4 	movi	r2,7
    1824:	14416916 	blt	r2,r17,1dcc <___vfprintf_internal_r+0x16d4>
    1828:	45800204 	addi	r22,r8,8
    182c:	d9003617 	ldw	r4,216(sp)
    1830:	d9403817 	ldw	r5,224(sp)
    1834:	000d883a 	mov	r6,zero
    1838:	000f883a 	mov	r7,zero
    183c:	d8c03c15 	stw	r3,240(sp)
    1840:	000bea80 	call	bea8 <__eqdf2>
    1844:	d8c03c17 	ldw	r3,240(sp)
    1848:	1000bc26 	beq	r2,zero,1b3c <___vfprintf_internal_r+0x1444>
    184c:	d9403317 	ldw	r5,204(sp)
    1850:	84000044 	addi	r16,r16,1
    1854:	8c400044 	addi	r17,r17,1
    1858:	28bfffc4 	addi	r2,r5,-1
    185c:	1887883a 	add	r3,r3,r2
    1860:	b0800115 	stw	r2,4(r22)
    1864:	b4000015 	stw	r16,0(r22)
    1868:	d8c02015 	stw	r3,128(sp)
    186c:	dc401f15 	stw	r17,124(sp)
    1870:	008001c4 	movi	r2,7
    1874:	14414316 	blt	r2,r17,1d84 <___vfprintf_internal_r+0x168c>
    1878:	b5800204 	addi	r22,r22,8
    187c:	d9003a17 	ldw	r4,232(sp)
    1880:	df0022c4 	addi	fp,sp,139
    1884:	8c400044 	addi	r17,r17,1
    1888:	20c7883a 	add	r3,r4,r3
    188c:	b7000015 	stw	fp,0(r22)
    1890:	b1000115 	stw	r4,4(r22)
    1894:	d8c02015 	stw	r3,128(sp)
    1898:	dc401f15 	stw	r17,124(sp)
    189c:	008001c4 	movi	r2,7
    18a0:	14400e16 	blt	r2,r17,18dc <___vfprintf_internal_r+0x11e4>
    18a4:	b2000204 	addi	r8,r22,8
    18a8:	003e1806 	br	110c <_gp+0xfffe6da0>
    18ac:	01000074 	movhi	r4,1
    18b0:	21018384 	addi	r4,r4,1550
    18b4:	d9002c15 	stw	r4,176(sp)
    18b8:	d9002c17 	ldw	r4,176(sp)
    18bc:	1c07883a 	add	r3,r3,r16
    18c0:	44000115 	stw	r16,4(r8)
    18c4:	41000015 	stw	r4,0(r8)
    18c8:	10800044 	addi	r2,r2,1
    18cc:	d8c02015 	stw	r3,128(sp)
    18d0:	d8801f15 	stw	r2,124(sp)
    18d4:	010001c4 	movi	r4,7
    18d8:	20be0b0e 	bge	r4,r2,1108 <_gp+0xfffe6d9c>
    18dc:	d9002d17 	ldw	r4,180(sp)
    18e0:	d9801e04 	addi	r6,sp,120
    18e4:	b80b883a 	mov	r5,r23
    18e8:	00073e80 	call	73e8 <__sprint_r>
    18ec:	103c861e 	bne	r2,zero,b08 <_gp+0xfffe679c>
    18f0:	d8c02017 	ldw	r3,128(sp)
    18f4:	da000404 	addi	r8,sp,16
    18f8:	003e0406 	br	110c <_gp+0xfffe6da0>
    18fc:	d9002d17 	ldw	r4,180(sp)
    1900:	d9801e04 	addi	r6,sp,120
    1904:	b80b883a 	mov	r5,r23
    1908:	00073e80 	call	73e8 <__sprint_r>
    190c:	103e3b26 	beq	r2,zero,11fc <_gp+0xfffe6e90>
    1910:	003c7d06 	br	b08 <_gp+0xfffe679c>
    1914:	d9002d17 	ldw	r4,180(sp)
    1918:	d9801e04 	addi	r6,sp,120
    191c:	b80b883a 	mov	r5,r23
    1920:	00073e80 	call	73e8 <__sprint_r>
    1924:	103c781e 	bne	r2,zero,b08 <_gp+0xfffe679c>
    1928:	d8c02017 	ldw	r3,128(sp)
    192c:	da000404 	addi	r8,sp,16
    1930:	003de906 	br	10d8 <_gp+0xfffe6d6c>
    1934:	d9002d17 	ldw	r4,180(sp)
    1938:	d9801e04 	addi	r6,sp,120
    193c:	b80b883a 	mov	r5,r23
    1940:	00073e80 	call	73e8 <__sprint_r>
    1944:	103c701e 	bne	r2,zero,b08 <_gp+0xfffe679c>
    1948:	d8c02017 	ldw	r3,128(sp)
    194c:	da000404 	addi	r8,sp,16
    1950:	003d9b06 	br	fc0 <_gp+0xfffe6c54>
    1954:	d9002d17 	ldw	r4,180(sp)
    1958:	d9801e04 	addi	r6,sp,120
    195c:	b80b883a 	mov	r5,r23
    1960:	00073e80 	call	73e8 <__sprint_r>
    1964:	103c681e 	bne	r2,zero,b08 <_gp+0xfffe679c>
    1968:	d8c02017 	ldw	r3,128(sp)
    196c:	da000404 	addi	r8,sp,16
    1970:	003da106 	br	ff8 <_gp+0xfffe6c8c>
    1974:	d9402a17 	ldw	r5,168(sp)
    1978:	d8002785 	stb	zero,158(sp)
    197c:	283f0616 	blt	r5,zero,1598 <_gp+0xfffe722c>
    1980:	00ffdfc4 	movi	r3,-129
    1984:	9d84b03a 	or	r2,r19,r22
    1988:	90e4703a 	and	r18,r18,r3
    198c:	103c3b26 	beq	r2,zero,a7c <_gp+0xfffe6710>
    1990:	0039883a 	mov	fp,zero
    1994:	003e5806 	br	12f8 <_gp+0xfffe6f8c>
    1998:	9080040c 	andi	r2,r18,16
    199c:	1001b326 	beq	r2,zero,206c <___vfprintf_internal_r+0x1974>
    19a0:	d8c02e17 	ldw	r3,184(sp)
    19a4:	d9002a17 	ldw	r4,168(sp)
    19a8:	d8002785 	stb	zero,158(sp)
    19ac:	18800104 	addi	r2,r3,4
    19b0:	1cc00017 	ldw	r19,0(r3)
    19b4:	002d883a 	mov	r22,zero
    19b8:	2001b516 	blt	r4,zero,2090 <___vfprintf_internal_r+0x1998>
    19bc:	00ffdfc4 	movi	r3,-129
    19c0:	d8802e15 	stw	r2,184(sp)
    19c4:	90e4703a 	and	r18,r18,r3
    19c8:	983d0526 	beq	r19,zero,de0 <_gp+0xfffe6a74>
    19cc:	0039883a 	mov	fp,zero
    19d0:	003d0806 	br	df4 <_gp+0xfffe6a88>
    19d4:	dc402617 	ldw	r17,152(sp)
    19d8:	0441d30e 	bge	zero,r17,2128 <___vfprintf_internal_r+0x1a30>
    19dc:	dc403217 	ldw	r17,200(sp)
    19e0:	d8803317 	ldw	r2,204(sp)
    19e4:	1440010e 	bge	r2,r17,19ec <___vfprintf_internal_r+0x12f4>
    19e8:	1023883a 	mov	r17,r2
    19ec:	04400a0e 	bge	zero,r17,1a18 <___vfprintf_internal_r+0x1320>
    19f0:	d8801f17 	ldw	r2,124(sp)
    19f4:	1c47883a 	add	r3,r3,r17
    19f8:	44000015 	stw	r16,0(r8)
    19fc:	10800044 	addi	r2,r2,1
    1a00:	44400115 	stw	r17,4(r8)
    1a04:	d8c02015 	stw	r3,128(sp)
    1a08:	d8801f15 	stw	r2,124(sp)
    1a0c:	010001c4 	movi	r4,7
    1a10:	20826516 	blt	r4,r2,23a8 <___vfprintf_internal_r+0x1cb0>
    1a14:	42000204 	addi	r8,r8,8
    1a18:	88026116 	blt	r17,zero,23a0 <___vfprintf_internal_r+0x1ca8>
    1a1c:	d9003217 	ldw	r4,200(sp)
    1a20:	2463c83a 	sub	r17,r4,r17
    1a24:	04407b0e 	bge	zero,r17,1c14 <___vfprintf_internal_r+0x151c>
    1a28:	05800404 	movi	r22,16
    1a2c:	d8801f17 	ldw	r2,124(sp)
    1a30:	b4419d0e 	bge	r22,r17,20a8 <___vfprintf_internal_r+0x19b0>
    1a34:	01000074 	movhi	r4,1
    1a38:	21018384 	addi	r4,r4,1550
    1a3c:	d9002c15 	stw	r4,176(sp)
    1a40:	070001c4 	movi	fp,7
    1a44:	dcc02d17 	ldw	r19,180(sp)
    1a48:	00000306 	br	1a58 <___vfprintf_internal_r+0x1360>
    1a4c:	42000204 	addi	r8,r8,8
    1a50:	8c7ffc04 	addi	r17,r17,-16
    1a54:	b441970e 	bge	r22,r17,20b4 <___vfprintf_internal_r+0x19bc>
    1a58:	18c00404 	addi	r3,r3,16
    1a5c:	10800044 	addi	r2,r2,1
    1a60:	45000015 	stw	r20,0(r8)
    1a64:	45800115 	stw	r22,4(r8)
    1a68:	d8c02015 	stw	r3,128(sp)
    1a6c:	d8801f15 	stw	r2,124(sp)
    1a70:	e0bff60e 	bge	fp,r2,1a4c <_gp+0xfffe76e0>
    1a74:	d9801e04 	addi	r6,sp,120
    1a78:	b80b883a 	mov	r5,r23
    1a7c:	9809883a 	mov	r4,r19
    1a80:	00073e80 	call	73e8 <__sprint_r>
    1a84:	103c201e 	bne	r2,zero,b08 <_gp+0xfffe679c>
    1a88:	d8c02017 	ldw	r3,128(sp)
    1a8c:	d8801f17 	ldw	r2,124(sp)
    1a90:	da000404 	addi	r8,sp,16
    1a94:	003fee06 	br	1a50 <_gp+0xfffe76e4>
    1a98:	d9002d17 	ldw	r4,180(sp)
    1a9c:	d9801e04 	addi	r6,sp,120
    1aa0:	b80b883a 	mov	r5,r23
    1aa4:	00073e80 	call	73e8 <__sprint_r>
    1aa8:	103c171e 	bne	r2,zero,b08 <_gp+0xfffe679c>
    1aac:	d8c02017 	ldw	r3,128(sp)
    1ab0:	df002787 	ldb	fp,158(sp)
    1ab4:	da000404 	addi	r8,sp,16
    1ab8:	003d3406 	br	f8c <_gp+0xfffe6c20>
    1abc:	9080040c 	andi	r2,r18,16
    1ac0:	10016126 	beq	r2,zero,2048 <___vfprintf_internal_r+0x1950>
    1ac4:	d9402e17 	ldw	r5,184(sp)
    1ac8:	2cc00017 	ldw	r19,0(r5)
    1acc:	29400104 	addi	r5,r5,4
    1ad0:	d9402e15 	stw	r5,184(sp)
    1ad4:	982dd7fa 	srai	r22,r19,31
    1ad8:	b005883a 	mov	r2,r22
    1adc:	003c5a06 	br	c48 <_gp+0xfffe68dc>
    1ae0:	9080040c 	andi	r2,r18,16
    1ae4:	10003526 	beq	r2,zero,1bbc <___vfprintf_internal_r+0x14c4>
    1ae8:	d8c02e17 	ldw	r3,184(sp)
    1aec:	d9002a17 	ldw	r4,168(sp)
    1af0:	d8002785 	stb	zero,158(sp)
    1af4:	18800104 	addi	r2,r3,4
    1af8:	1cc00017 	ldw	r19,0(r3)
    1afc:	002d883a 	mov	r22,zero
    1b00:	20003716 	blt	r4,zero,1be0 <___vfprintf_internal_r+0x14e8>
    1b04:	00ffdfc4 	movi	r3,-129
    1b08:	d8802e15 	stw	r2,184(sp)
    1b0c:	90e4703a 	and	r18,r18,r3
    1b10:	0039883a 	mov	fp,zero
    1b14:	983dd426 	beq	r19,zero,1268 <_gp+0xfffe6efc>
    1b18:	00800244 	movi	r2,9
    1b1c:	14fc5336 	bltu	r2,r19,c6c <_gp+0xfffe6900>
    1b20:	d8c02817 	ldw	r3,160(sp)
    1b24:	dc001dc4 	addi	r16,sp,119
    1b28:	9cc00c04 	addi	r19,r19,48
    1b2c:	1c07c83a 	sub	r3,r3,r16
    1b30:	dcc01dc5 	stb	r19,119(sp)
    1b34:	d8c02b15 	stw	r3,172(sp)
    1b38:	003cc606 	br	e54 <_gp+0xfffe6ae8>
    1b3c:	d8803317 	ldw	r2,204(sp)
    1b40:	143fffc4 	addi	r16,r2,-1
    1b44:	043f4d0e 	bge	zero,r16,187c <_gp+0xfffe7510>
    1b48:	07000404 	movi	fp,16
    1b4c:	e400810e 	bge	fp,r16,1d54 <___vfprintf_internal_r+0x165c>
    1b50:	01400074 	movhi	r5,1
    1b54:	29418384 	addi	r5,r5,1550
    1b58:	d9402c15 	stw	r5,176(sp)
    1b5c:	01c001c4 	movi	r7,7
    1b60:	dcc02d17 	ldw	r19,180(sp)
    1b64:	00000306 	br	1b74 <___vfprintf_internal_r+0x147c>
    1b68:	b5800204 	addi	r22,r22,8
    1b6c:	843ffc04 	addi	r16,r16,-16
    1b70:	e4007b0e 	bge	fp,r16,1d60 <___vfprintf_internal_r+0x1668>
    1b74:	18c00404 	addi	r3,r3,16
    1b78:	8c400044 	addi	r17,r17,1
    1b7c:	b5000015 	stw	r20,0(r22)
    1b80:	b7000115 	stw	fp,4(r22)
    1b84:	d8c02015 	stw	r3,128(sp)
    1b88:	dc401f15 	stw	r17,124(sp)
    1b8c:	3c7ff60e 	bge	r7,r17,1b68 <_gp+0xfffe77fc>
    1b90:	d9801e04 	addi	r6,sp,120
    1b94:	b80b883a 	mov	r5,r23
    1b98:	9809883a 	mov	r4,r19
    1b9c:	d9c03c15 	stw	r7,240(sp)
    1ba0:	00073e80 	call	73e8 <__sprint_r>
    1ba4:	d9c03c17 	ldw	r7,240(sp)
    1ba8:	103bd71e 	bne	r2,zero,b08 <_gp+0xfffe679c>
    1bac:	d8c02017 	ldw	r3,128(sp)
    1bb0:	dc401f17 	ldw	r17,124(sp)
    1bb4:	dd800404 	addi	r22,sp,16
    1bb8:	003fec06 	br	1b6c <_gp+0xfffe7800>
    1bbc:	9080100c 	andi	r2,r18,64
    1bc0:	d8002785 	stb	zero,158(sp)
    1bc4:	10010e26 	beq	r2,zero,2000 <___vfprintf_internal_r+0x1908>
    1bc8:	d9402e17 	ldw	r5,184(sp)
    1bcc:	d8c02a17 	ldw	r3,168(sp)
    1bd0:	002d883a 	mov	r22,zero
    1bd4:	28800104 	addi	r2,r5,4
    1bd8:	2cc0000b 	ldhu	r19,0(r5)
    1bdc:	183fc90e 	bge	r3,zero,1b04 <_gp+0xfffe7798>
    1be0:	d8802e15 	stw	r2,184(sp)
    1be4:	0039883a 	mov	fp,zero
    1be8:	9d84b03a 	or	r2,r19,r22
    1bec:	103c1e1e 	bne	r2,zero,c68 <_gp+0xfffe68fc>
    1bf0:	00800044 	movi	r2,1
    1bf4:	003e6c06 	br	15a8 <_gp+0xfffe723c>
    1bf8:	d9002d17 	ldw	r4,180(sp)
    1bfc:	d9801e04 	addi	r6,sp,120
    1c00:	b80b883a 	mov	r5,r23
    1c04:	00073e80 	call	73e8 <__sprint_r>
    1c08:	103bbf1e 	bne	r2,zero,b08 <_gp+0xfffe679c>
    1c0c:	d8c02017 	ldw	r3,128(sp)
    1c10:	da000404 	addi	r8,sp,16
    1c14:	d9003217 	ldw	r4,200(sp)
    1c18:	d8802617 	ldw	r2,152(sp)
    1c1c:	d9403317 	ldw	r5,204(sp)
    1c20:	8123883a 	add	r17,r16,r4
    1c24:	11400216 	blt	r2,r5,1c30 <___vfprintf_internal_r+0x1538>
    1c28:	9100004c 	andi	r4,r18,1
    1c2c:	20000d26 	beq	r4,zero,1c64 <___vfprintf_internal_r+0x156c>
    1c30:	d9003717 	ldw	r4,220(sp)
    1c34:	d9403417 	ldw	r5,208(sp)
    1c38:	1907883a 	add	r3,r3,r4
    1c3c:	d9001f17 	ldw	r4,124(sp)
    1c40:	41400015 	stw	r5,0(r8)
    1c44:	d9403717 	ldw	r5,220(sp)
    1c48:	21000044 	addi	r4,r4,1
    1c4c:	d8c02015 	stw	r3,128(sp)
    1c50:	41400115 	stw	r5,4(r8)
    1c54:	d9001f15 	stw	r4,124(sp)
    1c58:	014001c4 	movi	r5,7
    1c5c:	2901e816 	blt	r5,r4,2400 <___vfprintf_internal_r+0x1d08>
    1c60:	42000204 	addi	r8,r8,8
    1c64:	d9003317 	ldw	r4,204(sp)
    1c68:	8121883a 	add	r16,r16,r4
    1c6c:	2085c83a 	sub	r2,r4,r2
    1c70:	8461c83a 	sub	r16,r16,r17
    1c74:	1400010e 	bge	r2,r16,1c7c <___vfprintf_internal_r+0x1584>
    1c78:	1021883a 	mov	r16,r2
    1c7c:	04000a0e 	bge	zero,r16,1ca8 <___vfprintf_internal_r+0x15b0>
    1c80:	d9001f17 	ldw	r4,124(sp)
    1c84:	1c07883a 	add	r3,r3,r16
    1c88:	44400015 	stw	r17,0(r8)
    1c8c:	21000044 	addi	r4,r4,1
    1c90:	44000115 	stw	r16,4(r8)
    1c94:	d8c02015 	stw	r3,128(sp)
    1c98:	d9001f15 	stw	r4,124(sp)
    1c9c:	014001c4 	movi	r5,7
    1ca0:	2901fb16 	blt	r5,r4,2490 <___vfprintf_internal_r+0x1d98>
    1ca4:	42000204 	addi	r8,r8,8
    1ca8:	8001f716 	blt	r16,zero,2488 <___vfprintf_internal_r+0x1d90>
    1cac:	1421c83a 	sub	r16,r2,r16
    1cb0:	043d160e 	bge	zero,r16,110c <_gp+0xfffe6da0>
    1cb4:	04400404 	movi	r17,16
    1cb8:	d8801f17 	ldw	r2,124(sp)
    1cbc:	8c3efb0e 	bge	r17,r16,18ac <_gp+0xfffe7540>
    1cc0:	01400074 	movhi	r5,1
    1cc4:	29418384 	addi	r5,r5,1550
    1cc8:	d9402c15 	stw	r5,176(sp)
    1ccc:	058001c4 	movi	r22,7
    1cd0:	dcc02d17 	ldw	r19,180(sp)
    1cd4:	00000306 	br	1ce4 <___vfprintf_internal_r+0x15ec>
    1cd8:	42000204 	addi	r8,r8,8
    1cdc:	843ffc04 	addi	r16,r16,-16
    1ce0:	8c3ef50e 	bge	r17,r16,18b8 <_gp+0xfffe754c>
    1ce4:	18c00404 	addi	r3,r3,16
    1ce8:	10800044 	addi	r2,r2,1
    1cec:	45000015 	stw	r20,0(r8)
    1cf0:	44400115 	stw	r17,4(r8)
    1cf4:	d8c02015 	stw	r3,128(sp)
    1cf8:	d8801f15 	stw	r2,124(sp)
    1cfc:	b0bff60e 	bge	r22,r2,1cd8 <_gp+0xfffe796c>
    1d00:	d9801e04 	addi	r6,sp,120
    1d04:	b80b883a 	mov	r5,r23
    1d08:	9809883a 	mov	r4,r19
    1d0c:	00073e80 	call	73e8 <__sprint_r>
    1d10:	103b7d1e 	bne	r2,zero,b08 <_gp+0xfffe679c>
    1d14:	d8c02017 	ldw	r3,128(sp)
    1d18:	d8801f17 	ldw	r2,124(sp)
    1d1c:	da000404 	addi	r8,sp,16
    1d20:	003fee06 	br	1cdc <_gp+0xfffe7970>
    1d24:	9088703a 	and	r4,r18,r2
    1d28:	203eab1e 	bne	r4,zero,17d8 <_gp+0xfffe746c>
    1d2c:	dc401f17 	ldw	r17,124(sp)
    1d30:	40800115 	stw	r2,4(r8)
    1d34:	44000015 	stw	r16,0(r8)
    1d38:	8c400044 	addi	r17,r17,1
    1d3c:	d8c02015 	stw	r3,128(sp)
    1d40:	dc401f15 	stw	r17,124(sp)
    1d44:	008001c4 	movi	r2,7
    1d48:	14400e16 	blt	r2,r17,1d84 <___vfprintf_internal_r+0x168c>
    1d4c:	45800204 	addi	r22,r8,8
    1d50:	003eca06 	br	187c <_gp+0xfffe7510>
    1d54:	01000074 	movhi	r4,1
    1d58:	21018384 	addi	r4,r4,1550
    1d5c:	d9002c15 	stw	r4,176(sp)
    1d60:	d8802c17 	ldw	r2,176(sp)
    1d64:	1c07883a 	add	r3,r3,r16
    1d68:	8c400044 	addi	r17,r17,1
    1d6c:	b0800015 	stw	r2,0(r22)
    1d70:	b4000115 	stw	r16,4(r22)
    1d74:	d8c02015 	stw	r3,128(sp)
    1d78:	dc401f15 	stw	r17,124(sp)
    1d7c:	008001c4 	movi	r2,7
    1d80:	147ebd0e 	bge	r2,r17,1878 <_gp+0xfffe750c>
    1d84:	d9002d17 	ldw	r4,180(sp)
    1d88:	d9801e04 	addi	r6,sp,120
    1d8c:	b80b883a 	mov	r5,r23
    1d90:	00073e80 	call	73e8 <__sprint_r>
    1d94:	103b5c1e 	bne	r2,zero,b08 <_gp+0xfffe679c>
    1d98:	d8c02017 	ldw	r3,128(sp)
    1d9c:	dc401f17 	ldw	r17,124(sp)
    1da0:	dd800404 	addi	r22,sp,16
    1da4:	003eb506 	br	187c <_gp+0xfffe7510>
    1da8:	d9002d17 	ldw	r4,180(sp)
    1dac:	d9801e04 	addi	r6,sp,120
    1db0:	b80b883a 	mov	r5,r23
    1db4:	00073e80 	call	73e8 <__sprint_r>
    1db8:	103b531e 	bne	r2,zero,b08 <_gp+0xfffe679c>
    1dbc:	d8c02017 	ldw	r3,128(sp)
    1dc0:	dc401f17 	ldw	r17,124(sp)
    1dc4:	da000404 	addi	r8,sp,16
    1dc8:	003e8d06 	br	1800 <_gp+0xfffe7494>
    1dcc:	d9002d17 	ldw	r4,180(sp)
    1dd0:	d9801e04 	addi	r6,sp,120
    1dd4:	b80b883a 	mov	r5,r23
    1dd8:	00073e80 	call	73e8 <__sprint_r>
    1ddc:	103b4a1e 	bne	r2,zero,b08 <_gp+0xfffe679c>
    1de0:	d8c02017 	ldw	r3,128(sp)
    1de4:	dc401f17 	ldw	r17,124(sp)
    1de8:	dd800404 	addi	r22,sp,16
    1dec:	003e8f06 	br	182c <_gp+0xfffe74c0>
    1df0:	0027883a 	mov	r19,zero
    1df4:	003f4a06 	br	1b20 <_gp+0xfffe77b4>
    1df8:	d9002d17 	ldw	r4,180(sp)
    1dfc:	d9801e04 	addi	r6,sp,120
    1e00:	b80b883a 	mov	r5,r23
    1e04:	00073e80 	call	73e8 <__sprint_r>
    1e08:	103b3f1e 	bne	r2,zero,b08 <_gp+0xfffe679c>
    1e0c:	d8c02017 	ldw	r3,128(sp)
    1e10:	da000404 	addi	r8,sp,16
    1e14:	003c7b06 	br	1004 <_gp+0xfffe6c98>
    1e18:	d9402a17 	ldw	r5,168(sp)
    1e1c:	04e7c83a 	sub	r19,zero,r19
    1e20:	07000b44 	movi	fp,45
    1e24:	9804c03a 	cmpne	r2,r19,zero
    1e28:	05adc83a 	sub	r22,zero,r22
    1e2c:	df002785 	stb	fp,158(sp)
    1e30:	b0adc83a 	sub	r22,r22,r2
    1e34:	28017b16 	blt	r5,zero,2424 <___vfprintf_internal_r+0x1d2c>
    1e38:	00bfdfc4 	movi	r2,-129
    1e3c:	90a4703a 	and	r18,r18,r2
    1e40:	003b8906 	br	c68 <_gp+0xfffe68fc>
    1e44:	d9003617 	ldw	r4,216(sp)
    1e48:	d9403817 	ldw	r5,224(sp)
    1e4c:	da003d15 	stw	r8,244(sp)
    1e50:	0006f740 	call	6f74 <__fpclassifyd>
    1e54:	da003d17 	ldw	r8,244(sp)
    1e58:	1000f026 	beq	r2,zero,221c <___vfprintf_internal_r+0x1b24>
    1e5c:	d9002a17 	ldw	r4,168(sp)
    1e60:	05bff7c4 	movi	r22,-33
    1e64:	00bfffc4 	movi	r2,-1
    1e68:	8dac703a 	and	r22,r17,r22
    1e6c:	20820026 	beq	r4,r2,2670 <___vfprintf_internal_r+0x1f78>
    1e70:	008011c4 	movi	r2,71
    1e74:	b081f726 	beq	r22,r2,2654 <___vfprintf_internal_r+0x1f5c>
    1e78:	d9003817 	ldw	r4,224(sp)
    1e7c:	90c04014 	ori	r3,r18,256
    1e80:	d8c02c15 	stw	r3,176(sp)
    1e84:	20021516 	blt	r4,zero,26dc <___vfprintf_internal_r+0x1fe4>
    1e88:	dcc03817 	ldw	r19,224(sp)
    1e8c:	d8002905 	stb	zero,164(sp)
    1e90:	00801984 	movi	r2,102
    1e94:	8881f926 	beq	r17,r2,267c <___vfprintf_internal_r+0x1f84>
    1e98:	00801184 	movi	r2,70
    1e9c:	88821c26 	beq	r17,r2,2710 <___vfprintf_internal_r+0x2018>
    1ea0:	00801144 	movi	r2,69
    1ea4:	b081ef26 	beq	r22,r2,2664 <___vfprintf_internal_r+0x1f6c>
    1ea8:	d8c02a17 	ldw	r3,168(sp)
    1eac:	d8802104 	addi	r2,sp,132
    1eb0:	d8800315 	stw	r2,12(sp)
    1eb4:	d9403617 	ldw	r5,216(sp)
    1eb8:	d8802504 	addi	r2,sp,148
    1ebc:	d9002d17 	ldw	r4,180(sp)
    1ec0:	d8800215 	stw	r2,8(sp)
    1ec4:	d8802604 	addi	r2,sp,152
    1ec8:	d8c00015 	stw	r3,0(sp)
    1ecc:	d8800115 	stw	r2,4(sp)
    1ed0:	01c00084 	movi	r7,2
    1ed4:	980d883a 	mov	r6,r19
    1ed8:	d8c03c15 	stw	r3,240(sp)
    1edc:	da003d15 	stw	r8,244(sp)
    1ee0:	0002e280 	call	2e28 <_dtoa_r>
    1ee4:	1021883a 	mov	r16,r2
    1ee8:	008019c4 	movi	r2,103
    1eec:	d8c03c17 	ldw	r3,240(sp)
    1ef0:	da003d17 	ldw	r8,244(sp)
    1ef4:	88817126 	beq	r17,r2,24bc <___vfprintf_internal_r+0x1dc4>
    1ef8:	008011c4 	movi	r2,71
    1efc:	88829126 	beq	r17,r2,2944 <___vfprintf_internal_r+0x224c>
    1f00:	80f9883a 	add	fp,r16,r3
    1f04:	d9003617 	ldw	r4,216(sp)
    1f08:	000d883a 	mov	r6,zero
    1f0c:	000f883a 	mov	r7,zero
    1f10:	980b883a 	mov	r5,r19
    1f14:	da003d15 	stw	r8,244(sp)
    1f18:	000bea80 	call	bea8 <__eqdf2>
    1f1c:	da003d17 	ldw	r8,244(sp)
    1f20:	10018d26 	beq	r2,zero,2558 <___vfprintf_internal_r+0x1e60>
    1f24:	d8802117 	ldw	r2,132(sp)
    1f28:	1700062e 	bgeu	r2,fp,1f44 <___vfprintf_internal_r+0x184c>
    1f2c:	01000c04 	movi	r4,48
    1f30:	10c00044 	addi	r3,r2,1
    1f34:	d8c02115 	stw	r3,132(sp)
    1f38:	11000005 	stb	r4,0(r2)
    1f3c:	d8802117 	ldw	r2,132(sp)
    1f40:	173ffb36 	bltu	r2,fp,1f30 <_gp+0xfffe7bc4>
    1f44:	1405c83a 	sub	r2,r2,r16
    1f48:	d8803315 	stw	r2,204(sp)
    1f4c:	008011c4 	movi	r2,71
    1f50:	b0817626 	beq	r22,r2,252c <___vfprintf_internal_r+0x1e34>
    1f54:	00801944 	movi	r2,101
    1f58:	1442800e 	bge	r2,r17,295c <___vfprintf_internal_r+0x2264>
    1f5c:	d8c02617 	ldw	r3,152(sp)
    1f60:	00801984 	movi	r2,102
    1f64:	d8c03215 	stw	r3,200(sp)
    1f68:	8881fe26 	beq	r17,r2,2764 <___vfprintf_internal_r+0x206c>
    1f6c:	d8c03217 	ldw	r3,200(sp)
    1f70:	d9003317 	ldw	r4,204(sp)
    1f74:	1901dd16 	blt	r3,r4,26ec <___vfprintf_internal_r+0x1ff4>
    1f78:	9480004c 	andi	r18,r18,1
    1f7c:	90022b1e 	bne	r18,zero,282c <___vfprintf_internal_r+0x2134>
    1f80:	1805883a 	mov	r2,r3
    1f84:	18028316 	blt	r3,zero,2994 <___vfprintf_internal_r+0x229c>
    1f88:	d8c03217 	ldw	r3,200(sp)
    1f8c:	044019c4 	movi	r17,103
    1f90:	d8c02b15 	stw	r3,172(sp)
    1f94:	df002907 	ldb	fp,164(sp)
    1f98:	e001531e 	bne	fp,zero,24e8 <___vfprintf_internal_r+0x1df0>
    1f9c:	df002783 	ldbu	fp,158(sp)
    1fa0:	d8802915 	stw	r2,164(sp)
    1fa4:	dc802c17 	ldw	r18,176(sp)
    1fa8:	d8002a15 	stw	zero,168(sp)
    1fac:	003baf06 	br	e6c <_gp+0xfffe6b00>
    1fb0:	d8c02e17 	ldw	r3,184(sp)
    1fb4:	d9002e17 	ldw	r4,184(sp)
    1fb8:	d9402e17 	ldw	r5,184(sp)
    1fbc:	18c00017 	ldw	r3,0(r3)
    1fc0:	21000117 	ldw	r4,4(r4)
    1fc4:	29400204 	addi	r5,r5,8
    1fc8:	d8c03615 	stw	r3,216(sp)
    1fcc:	d9003815 	stw	r4,224(sp)
    1fd0:	d9402e15 	stw	r5,184(sp)
    1fd4:	003b5006 	br	d18 <_gp+0xfffe69ac>
    1fd8:	ac400007 	ldb	r17,0(r21)
    1fdc:	003a2806 	br	880 <_gp+0xfffe6514>
    1fe0:	9080100c 	andi	r2,r18,64
    1fe4:	1000a826 	beq	r2,zero,2288 <___vfprintf_internal_r+0x1b90>
    1fe8:	d8c02e17 	ldw	r3,184(sp)
    1fec:	002d883a 	mov	r22,zero
    1ff0:	1cc0000b 	ldhu	r19,0(r3)
    1ff4:	18c00104 	addi	r3,r3,4
    1ff8:	d8c02e15 	stw	r3,184(sp)
    1ffc:	003caf06 	br	12bc <_gp+0xfffe6f50>
    2000:	d9002e17 	ldw	r4,184(sp)
    2004:	d9402a17 	ldw	r5,168(sp)
    2008:	002d883a 	mov	r22,zero
    200c:	20800104 	addi	r2,r4,4
    2010:	24c00017 	ldw	r19,0(r4)
    2014:	283ebb0e 	bge	r5,zero,1b04 <_gp+0xfffe7798>
    2018:	003ef106 	br	1be0 <_gp+0xfffe7874>
    201c:	9080040c 	andi	r2,r18,16
    2020:	1000921e 	bne	r2,zero,226c <___vfprintf_internal_r+0x1b74>
    2024:	9480100c 	andi	r18,r18,64
    2028:	90013926 	beq	r18,zero,2510 <___vfprintf_internal_r+0x1e18>
    202c:	d9402e17 	ldw	r5,184(sp)
    2030:	d8c02f17 	ldw	r3,188(sp)
    2034:	28800017 	ldw	r2,0(r5)
    2038:	29400104 	addi	r5,r5,4
    203c:	d9402e15 	stw	r5,184(sp)
    2040:	10c0000d 	sth	r3,0(r2)
    2044:	0039e406 	br	7d8 <_gp+0xfffe646c>
    2048:	9080100c 	andi	r2,r18,64
    204c:	10008026 	beq	r2,zero,2250 <___vfprintf_internal_r+0x1b58>
    2050:	d8802e17 	ldw	r2,184(sp)
    2054:	14c0000f 	ldh	r19,0(r2)
    2058:	10800104 	addi	r2,r2,4
    205c:	d8802e15 	stw	r2,184(sp)
    2060:	982dd7fa 	srai	r22,r19,31
    2064:	b005883a 	mov	r2,r22
    2068:	003af706 	br	c48 <_gp+0xfffe68dc>
    206c:	9080100c 	andi	r2,r18,64
    2070:	d8002785 	stb	zero,158(sp)
    2074:	10008a1e 	bne	r2,zero,22a0 <___vfprintf_internal_r+0x1ba8>
    2078:	d9002e17 	ldw	r4,184(sp)
    207c:	d9402a17 	ldw	r5,168(sp)
    2080:	002d883a 	mov	r22,zero
    2084:	20800104 	addi	r2,r4,4
    2088:	24c00017 	ldw	r19,0(r4)
    208c:	283e4b0e 	bge	r5,zero,19bc <_gp+0xfffe7650>
    2090:	9d86b03a 	or	r3,r19,r22
    2094:	d8802e15 	stw	r2,184(sp)
    2098:	183e4c1e 	bne	r3,zero,19cc <_gp+0xfffe7660>
    209c:	0039883a 	mov	fp,zero
    20a0:	0005883a 	mov	r2,zero
    20a4:	003d4006 	br	15a8 <_gp+0xfffe723c>
    20a8:	01400074 	movhi	r5,1
    20ac:	29418384 	addi	r5,r5,1550
    20b0:	d9402c15 	stw	r5,176(sp)
    20b4:	d9402c17 	ldw	r5,176(sp)
    20b8:	1c47883a 	add	r3,r3,r17
    20bc:	10800044 	addi	r2,r2,1
    20c0:	41400015 	stw	r5,0(r8)
    20c4:	44400115 	stw	r17,4(r8)
    20c8:	d8c02015 	stw	r3,128(sp)
    20cc:	d8801f15 	stw	r2,124(sp)
    20d0:	010001c4 	movi	r4,7
    20d4:	20bec816 	blt	r4,r2,1bf8 <_gp+0xfffe788c>
    20d8:	42000204 	addi	r8,r8,8
    20dc:	003ecd06 	br	1c14 <_gp+0xfffe78a8>
    20e0:	d9002a17 	ldw	r4,168(sp)
    20e4:	d8002785 	stb	zero,158(sp)
    20e8:	203d2d16 	blt	r4,zero,15a0 <_gp+0xfffe7234>
    20ec:	00bfdfc4 	movi	r2,-129
    20f0:	90a4703a 	and	r18,r18,r2
    20f4:	003a6106 	br	a7c <_gp+0xfffe6710>
    20f8:	01000074 	movhi	r4,1
    20fc:	21018384 	addi	r4,r4,1550
    2100:	d9002c15 	stw	r4,176(sp)
    2104:	003bea06 	br	10b0 <_gp+0xfffe6d44>
    2108:	d9002d17 	ldw	r4,180(sp)
    210c:	d9801e04 	addi	r6,sp,120
    2110:	b80b883a 	mov	r5,r23
    2114:	00073e80 	call	73e8 <__sprint_r>
    2118:	103a7b1e 	bne	r2,zero,b08 <_gp+0xfffe679c>
    211c:	d8c02017 	ldw	r3,128(sp)
    2120:	da000404 	addi	r8,sp,16
    2124:	003d4106 	br	162c <_gp+0xfffe72c0>
    2128:	d8801f17 	ldw	r2,124(sp)
    212c:	01400074 	movhi	r5,1
    2130:	01000044 	movi	r4,1
    2134:	18c00044 	addi	r3,r3,1
    2138:	10800044 	addi	r2,r2,1
    213c:	29418304 	addi	r5,r5,1548
    2140:	41000115 	stw	r4,4(r8)
    2144:	41400015 	stw	r5,0(r8)
    2148:	d8c02015 	stw	r3,128(sp)
    214c:	d8801f15 	stw	r2,124(sp)
    2150:	010001c4 	movi	r4,7
    2154:	20805c16 	blt	r4,r2,22c8 <___vfprintf_internal_r+0x1bd0>
    2158:	42000204 	addi	r8,r8,8
    215c:	8800041e 	bne	r17,zero,2170 <___vfprintf_internal_r+0x1a78>
    2160:	d8803317 	ldw	r2,204(sp)
    2164:	1000021e 	bne	r2,zero,2170 <___vfprintf_internal_r+0x1a78>
    2168:	9080004c 	andi	r2,r18,1
    216c:	103be726 	beq	r2,zero,110c <_gp+0xfffe6da0>
    2170:	d9003717 	ldw	r4,220(sp)
    2174:	d8801f17 	ldw	r2,124(sp)
    2178:	d9403417 	ldw	r5,208(sp)
    217c:	20c7883a 	add	r3,r4,r3
    2180:	10800044 	addi	r2,r2,1
    2184:	41000115 	stw	r4,4(r8)
    2188:	41400015 	stw	r5,0(r8)
    218c:	d8c02015 	stw	r3,128(sp)
    2190:	d8801f15 	stw	r2,124(sp)
    2194:	010001c4 	movi	r4,7
    2198:	20812116 	blt	r4,r2,2620 <___vfprintf_internal_r+0x1f28>
    219c:	42000204 	addi	r8,r8,8
    21a0:	0463c83a 	sub	r17,zero,r17
    21a4:	0440730e 	bge	zero,r17,2374 <___vfprintf_internal_r+0x1c7c>
    21a8:	05800404 	movi	r22,16
    21ac:	b440860e 	bge	r22,r17,23c8 <___vfprintf_internal_r+0x1cd0>
    21b0:	01400074 	movhi	r5,1
    21b4:	29418384 	addi	r5,r5,1550
    21b8:	d9402c15 	stw	r5,176(sp)
    21bc:	070001c4 	movi	fp,7
    21c0:	dcc02d17 	ldw	r19,180(sp)
    21c4:	00000306 	br	21d4 <___vfprintf_internal_r+0x1adc>
    21c8:	42000204 	addi	r8,r8,8
    21cc:	8c7ffc04 	addi	r17,r17,-16
    21d0:	b440800e 	bge	r22,r17,23d4 <___vfprintf_internal_r+0x1cdc>
    21d4:	18c00404 	addi	r3,r3,16
    21d8:	10800044 	addi	r2,r2,1
    21dc:	45000015 	stw	r20,0(r8)
    21e0:	45800115 	stw	r22,4(r8)
    21e4:	d8c02015 	stw	r3,128(sp)
    21e8:	d8801f15 	stw	r2,124(sp)
    21ec:	e0bff60e 	bge	fp,r2,21c8 <_gp+0xfffe7e5c>
    21f0:	d9801e04 	addi	r6,sp,120
    21f4:	b80b883a 	mov	r5,r23
    21f8:	9809883a 	mov	r4,r19
    21fc:	00073e80 	call	73e8 <__sprint_r>
    2200:	103a411e 	bne	r2,zero,b08 <_gp+0xfffe679c>
    2204:	d8c02017 	ldw	r3,128(sp)
    2208:	d8801f17 	ldw	r2,124(sp)
    220c:	da000404 	addi	r8,sp,16
    2210:	003fee06 	br	21cc <_gp+0xfffe7e60>
    2214:	00bfffc4 	movi	r2,-1
    2218:	003a3f06 	br	b18 <_gp+0xfffe67ac>
    221c:	008011c4 	movi	r2,71
    2220:	1440b816 	blt	r2,r17,2504 <___vfprintf_internal_r+0x1e0c>
    2224:	04000074 	movhi	r16,1
    2228:	84017504 	addi	r16,r16,1492
    222c:	00c000c4 	movi	r3,3
    2230:	00bfdfc4 	movi	r2,-129
    2234:	d8c02915 	stw	r3,164(sp)
    2238:	90a4703a 	and	r18,r18,r2
    223c:	df002783 	ldbu	fp,158(sp)
    2240:	d8c02b15 	stw	r3,172(sp)
    2244:	d8002a15 	stw	zero,168(sp)
    2248:	d8003215 	stw	zero,200(sp)
    224c:	003b0706 	br	e6c <_gp+0xfffe6b00>
    2250:	d8c02e17 	ldw	r3,184(sp)
    2254:	1cc00017 	ldw	r19,0(r3)
    2258:	18c00104 	addi	r3,r3,4
    225c:	d8c02e15 	stw	r3,184(sp)
    2260:	982dd7fa 	srai	r22,r19,31
    2264:	b005883a 	mov	r2,r22
    2268:	003a7706 	br	c48 <_gp+0xfffe68dc>
    226c:	d8c02e17 	ldw	r3,184(sp)
    2270:	d9002f17 	ldw	r4,188(sp)
    2274:	18800017 	ldw	r2,0(r3)
    2278:	18c00104 	addi	r3,r3,4
    227c:	d8c02e15 	stw	r3,184(sp)
    2280:	11000015 	stw	r4,0(r2)
    2284:	00395406 	br	7d8 <_gp+0xfffe646c>
    2288:	d9002e17 	ldw	r4,184(sp)
    228c:	002d883a 	mov	r22,zero
    2290:	24c00017 	ldw	r19,0(r4)
    2294:	21000104 	addi	r4,r4,4
    2298:	d9002e15 	stw	r4,184(sp)
    229c:	003c0706 	br	12bc <_gp+0xfffe6f50>
    22a0:	d9402e17 	ldw	r5,184(sp)
    22a4:	d8c02a17 	ldw	r3,168(sp)
    22a8:	002d883a 	mov	r22,zero
    22ac:	28800104 	addi	r2,r5,4
    22b0:	2cc0000b 	ldhu	r19,0(r5)
    22b4:	183dc10e 	bge	r3,zero,19bc <_gp+0xfffe7650>
    22b8:	003f7506 	br	2090 <_gp+0xfffe7d24>
    22bc:	04000074 	movhi	r16,1
    22c0:	84017304 	addi	r16,r16,1484
    22c4:	003aa706 	br	d64 <_gp+0xfffe69f8>
    22c8:	d9002d17 	ldw	r4,180(sp)
    22cc:	d9801e04 	addi	r6,sp,120
    22d0:	b80b883a 	mov	r5,r23
    22d4:	00073e80 	call	73e8 <__sprint_r>
    22d8:	103a0b1e 	bne	r2,zero,b08 <_gp+0xfffe679c>
    22dc:	dc402617 	ldw	r17,152(sp)
    22e0:	d8c02017 	ldw	r3,128(sp)
    22e4:	da000404 	addi	r8,sp,16
    22e8:	003f9c06 	br	215c <_gp+0xfffe7df0>
    22ec:	ac400043 	ldbu	r17,1(r21)
    22f0:	84000814 	ori	r16,r16,32
    22f4:	ad400044 	addi	r21,r21,1
    22f8:	8c403fcc 	andi	r17,r17,255
    22fc:	8c40201c 	xori	r17,r17,128
    2300:	8c7fe004 	addi	r17,r17,-128
    2304:	00395e06 	br	880 <_gp+0xfffe6514>
    2308:	d8c02e15 	stw	r3,184(sp)
    230c:	0039883a 	mov	fp,zero
    2310:	003e3506 	br	1be8 <_gp+0xfffe787c>
    2314:	d9002d17 	ldw	r4,180(sp)
    2318:	d9801e04 	addi	r6,sp,120
    231c:	b80b883a 	mov	r5,r23
    2320:	00073e80 	call	73e8 <__sprint_r>
    2324:	1039f81e 	bne	r2,zero,b08 <_gp+0xfffe679c>
    2328:	d8c02017 	ldw	r3,128(sp)
    232c:	da000404 	addi	r8,sp,16
    2330:	003cd006 	br	1674 <_gp+0xfffe7308>
    2334:	8009883a 	mov	r4,r16
    2338:	df003d15 	stw	fp,244(sp)
    233c:	00072540 	call	7254 <strlen>
    2340:	d8802b15 	stw	r2,172(sp)
    2344:	da003d17 	ldw	r8,244(sp)
    2348:	103c200e 	bge	r2,zero,13cc <_gp+0xfffe7060>
    234c:	0005883a 	mov	r2,zero
    2350:	003c1e06 	br	13cc <_gp+0xfffe7060>
    2354:	d9002d17 	ldw	r4,180(sp)
    2358:	d9801e04 	addi	r6,sp,120
    235c:	b80b883a 	mov	r5,r23
    2360:	00073e80 	call	73e8 <__sprint_r>
    2364:	1039e81e 	bne	r2,zero,b08 <_gp+0xfffe679c>
    2368:	d8c02017 	ldw	r3,128(sp)
    236c:	d8801f17 	ldw	r2,124(sp)
    2370:	da000404 	addi	r8,sp,16
    2374:	d9403317 	ldw	r5,204(sp)
    2378:	10800044 	addi	r2,r2,1
    237c:	44000015 	stw	r16,0(r8)
    2380:	28c7883a 	add	r3,r5,r3
    2384:	003b5b06 	br	10f4 <_gp+0xfffe6d88>
    2388:	01000074 	movhi	r4,1
    238c:	21018784 	addi	r4,r4,1566
    2390:	d9003515 	stw	r4,212(sp)
    2394:	003af206 	br	f60 <_gp+0xfffe6bf4>
    2398:	013fffc4 	movi	r4,-1
    239c:	003a0806 	br	bc0 <_gp+0xfffe6854>
    23a0:	0023883a 	mov	r17,zero
    23a4:	003d9d06 	br	1a1c <_gp+0xfffe76b0>
    23a8:	d9002d17 	ldw	r4,180(sp)
    23ac:	d9801e04 	addi	r6,sp,120
    23b0:	b80b883a 	mov	r5,r23
    23b4:	00073e80 	call	73e8 <__sprint_r>
    23b8:	1039d31e 	bne	r2,zero,b08 <_gp+0xfffe679c>
    23bc:	d8c02017 	ldw	r3,128(sp)
    23c0:	da000404 	addi	r8,sp,16
    23c4:	003d9406 	br	1a18 <_gp+0xfffe76ac>
    23c8:	01000074 	movhi	r4,1
    23cc:	21018384 	addi	r4,r4,1550
    23d0:	d9002c15 	stw	r4,176(sp)
    23d4:	d9002c17 	ldw	r4,176(sp)
    23d8:	1c47883a 	add	r3,r3,r17
    23dc:	10800044 	addi	r2,r2,1
    23e0:	41000015 	stw	r4,0(r8)
    23e4:	44400115 	stw	r17,4(r8)
    23e8:	d8c02015 	stw	r3,128(sp)
    23ec:	d8801f15 	stw	r2,124(sp)
    23f0:	010001c4 	movi	r4,7
    23f4:	20bfd716 	blt	r4,r2,2354 <_gp+0xfffe7fe8>
    23f8:	42000204 	addi	r8,r8,8
    23fc:	003fdd06 	br	2374 <_gp+0xfffe8008>
    2400:	d9002d17 	ldw	r4,180(sp)
    2404:	d9801e04 	addi	r6,sp,120
    2408:	b80b883a 	mov	r5,r23
    240c:	00073e80 	call	73e8 <__sprint_r>
    2410:	1039bd1e 	bne	r2,zero,b08 <_gp+0xfffe679c>
    2414:	d8802617 	ldw	r2,152(sp)
    2418:	d8c02017 	ldw	r3,128(sp)
    241c:	da000404 	addi	r8,sp,16
    2420:	003e1006 	br	1c64 <_gp+0xfffe78f8>
    2424:	00800044 	movi	r2,1
    2428:	10803fcc 	andi	r2,r2,255
    242c:	00c00044 	movi	r3,1
    2430:	10fa0d26 	beq	r2,r3,c68 <_gp+0xfffe68fc>
    2434:	00c00084 	movi	r3,2
    2438:	10fbaf26 	beq	r2,r3,12f8 <_gp+0xfffe6f8c>
    243c:	003a6d06 	br	df4 <_gp+0xfffe6a88>
    2440:	01000074 	movhi	r4,1
    2444:	21018784 	addi	r4,r4,1566
    2448:	d9003515 	stw	r4,212(sp)
    244c:	003b5406 	br	11a0 <_gp+0xfffe6e34>
    2450:	d8802a17 	ldw	r2,168(sp)
    2454:	00c00184 	movi	r3,6
    2458:	1880012e 	bgeu	r3,r2,2460 <___vfprintf_internal_r+0x1d68>
    245c:	1805883a 	mov	r2,r3
    2460:	d8802b15 	stw	r2,172(sp)
    2464:	1000ef16 	blt	r2,zero,2824 <___vfprintf_internal_r+0x212c>
    2468:	04000074 	movhi	r16,1
    246c:	d8802915 	stw	r2,164(sp)
    2470:	dcc02e15 	stw	r19,184(sp)
    2474:	d8002a15 	stw	zero,168(sp)
    2478:	d8003215 	stw	zero,200(sp)
    247c:	84018104 	addi	r16,r16,1540
    2480:	0039883a 	mov	fp,zero
    2484:	003a8006 	br	e88 <_gp+0xfffe6b1c>
    2488:	0021883a 	mov	r16,zero
    248c:	003e0706 	br	1cac <_gp+0xfffe7940>
    2490:	d9002d17 	ldw	r4,180(sp)
    2494:	d9801e04 	addi	r6,sp,120
    2498:	b80b883a 	mov	r5,r23
    249c:	00073e80 	call	73e8 <__sprint_r>
    24a0:	1039991e 	bne	r2,zero,b08 <_gp+0xfffe679c>
    24a4:	d8802617 	ldw	r2,152(sp)
    24a8:	d9403317 	ldw	r5,204(sp)
    24ac:	d8c02017 	ldw	r3,128(sp)
    24b0:	da000404 	addi	r8,sp,16
    24b4:	2885c83a 	sub	r2,r5,r2
    24b8:	003dfb06 	br	1ca8 <_gp+0xfffe793c>
    24bc:	9080004c 	andi	r2,r18,1
    24c0:	103e8f1e 	bne	r2,zero,1f00 <_gp+0xfffe7b94>
    24c4:	d8802117 	ldw	r2,132(sp)
    24c8:	003e9e06 	br	1f44 <_gp+0xfffe7bd8>
    24cc:	1025883a 	mov	r18,r2
    24d0:	0039883a 	mov	fp,zero
    24d4:	00800084 	movi	r2,2
    24d8:	003fd306 	br	2428 <_gp+0xfffe80bc>
    24dc:	07000b44 	movi	fp,45
    24e0:	df002785 	stb	fp,158(sp)
    24e4:	003a1b06 	br	d54 <_gp+0xfffe69e8>
    24e8:	00c00b44 	movi	r3,45
    24ec:	d8c02785 	stb	r3,158(sp)
    24f0:	d8802915 	stw	r2,164(sp)
    24f4:	dc802c17 	ldw	r18,176(sp)
    24f8:	d8002a15 	stw	zero,168(sp)
    24fc:	07000b44 	movi	fp,45
    2500:	003a5e06 	br	e7c <_gp+0xfffe6b10>
    2504:	04000074 	movhi	r16,1
    2508:	84017604 	addi	r16,r16,1496
    250c:	003f4706 	br	222c <_gp+0xfffe7ec0>
    2510:	d9002e17 	ldw	r4,184(sp)
    2514:	d9402f17 	ldw	r5,188(sp)
    2518:	20800017 	ldw	r2,0(r4)
    251c:	21000104 	addi	r4,r4,4
    2520:	d9002e15 	stw	r4,184(sp)
    2524:	11400015 	stw	r5,0(r2)
    2528:	0038ab06 	br	7d8 <_gp+0xfffe646c>
    252c:	dd802617 	ldw	r22,152(sp)
    2530:	00bfff44 	movi	r2,-3
    2534:	b0801c16 	blt	r22,r2,25a8 <___vfprintf_internal_r+0x1eb0>
    2538:	d9402a17 	ldw	r5,168(sp)
    253c:	2d801a16 	blt	r5,r22,25a8 <___vfprintf_internal_r+0x1eb0>
    2540:	dd803215 	stw	r22,200(sp)
    2544:	003e8906 	br	1f6c <_gp+0xfffe7c00>
    2548:	01000074 	movhi	r4,1
    254c:	21018384 	addi	r4,r4,1550
    2550:	d9002c15 	stw	r4,176(sp)
    2554:	003c9106 	br	179c <_gp+0xfffe7430>
    2558:	e005883a 	mov	r2,fp
    255c:	003e7906 	br	1f44 <_gp+0xfffe7bd8>
    2560:	d9002a17 	ldw	r4,168(sp)
    2564:	df002783 	ldbu	fp,158(sp)
    2568:	dcc02e15 	stw	r19,184(sp)
    256c:	d9002915 	stw	r4,164(sp)
    2570:	d9002b15 	stw	r4,172(sp)
    2574:	d8002a15 	stw	zero,168(sp)
    2578:	d8003215 	stw	zero,200(sp)
    257c:	003a3b06 	br	e6c <_gp+0xfffe6b00>
    2580:	9080004c 	andi	r2,r18,1
    2584:	0039883a 	mov	fp,zero
    2588:	10000426 	beq	r2,zero,259c <___vfprintf_internal_r+0x1ea4>
    258c:	00800c04 	movi	r2,48
    2590:	dc001dc4 	addi	r16,sp,119
    2594:	d8801dc5 	stb	r2,119(sp)
    2598:	003b6406 	br	132c <_gp+0xfffe6fc0>
    259c:	d8002b15 	stw	zero,172(sp)
    25a0:	dc001e04 	addi	r16,sp,120
    25a4:	003a2b06 	br	e54 <_gp+0xfffe6ae8>
    25a8:	8c7fff84 	addi	r17,r17,-2
    25ac:	b5bfffc4 	addi	r22,r22,-1
    25b0:	dd802615 	stw	r22,152(sp)
    25b4:	dc4022c5 	stb	r17,139(sp)
    25b8:	b000bf16 	blt	r22,zero,28b8 <___vfprintf_internal_r+0x21c0>
    25bc:	00800ac4 	movi	r2,43
    25c0:	d8802305 	stb	r2,140(sp)
    25c4:	00800244 	movi	r2,9
    25c8:	15807016 	blt	r2,r22,278c <___vfprintf_internal_r+0x2094>
    25cc:	00800c04 	movi	r2,48
    25d0:	b5800c04 	addi	r22,r22,48
    25d4:	d8802345 	stb	r2,141(sp)
    25d8:	dd802385 	stb	r22,142(sp)
    25dc:	d88023c4 	addi	r2,sp,143
    25e0:	df0022c4 	addi	fp,sp,139
    25e4:	d8c03317 	ldw	r3,204(sp)
    25e8:	1739c83a 	sub	fp,r2,fp
    25ec:	d9003317 	ldw	r4,204(sp)
    25f0:	e0c7883a 	add	r3,fp,r3
    25f4:	df003a15 	stw	fp,232(sp)
    25f8:	d8c02b15 	stw	r3,172(sp)
    25fc:	00800044 	movi	r2,1
    2600:	1100b30e 	bge	r2,r4,28d0 <___vfprintf_internal_r+0x21d8>
    2604:	d8c02b17 	ldw	r3,172(sp)
    2608:	18c00044 	addi	r3,r3,1
    260c:	d8c02b15 	stw	r3,172(sp)
    2610:	1805883a 	mov	r2,r3
    2614:	1800ac16 	blt	r3,zero,28c8 <___vfprintf_internal_r+0x21d0>
    2618:	d8003215 	stw	zero,200(sp)
    261c:	003e5d06 	br	1f94 <_gp+0xfffe7c28>
    2620:	d9002d17 	ldw	r4,180(sp)
    2624:	d9801e04 	addi	r6,sp,120
    2628:	b80b883a 	mov	r5,r23
    262c:	00073e80 	call	73e8 <__sprint_r>
    2630:	1039351e 	bne	r2,zero,b08 <_gp+0xfffe679c>
    2634:	dc402617 	ldw	r17,152(sp)
    2638:	d8c02017 	ldw	r3,128(sp)
    263c:	d8801f17 	ldw	r2,124(sp)
    2640:	da000404 	addi	r8,sp,16
    2644:	003ed606 	br	21a0 <_gp+0xfffe7e34>
    2648:	182b883a 	mov	r21,r3
    264c:	d8002a15 	stw	zero,168(sp)
    2650:	00388c06 	br	884 <_gp+0xfffe6518>
    2654:	d8802a17 	ldw	r2,168(sp)
    2658:	103e071e 	bne	r2,zero,1e78 <_gp+0xfffe7b0c>
    265c:	dc002a15 	stw	r16,168(sp)
    2660:	003e0506 	br	1e78 <_gp+0xfffe7b0c>
    2664:	d9002a17 	ldw	r4,168(sp)
    2668:	20c00044 	addi	r3,r4,1
    266c:	003e0f06 	br	1eac <_gp+0xfffe7b40>
    2670:	01400184 	movi	r5,6
    2674:	d9402a15 	stw	r5,168(sp)
    2678:	003dff06 	br	1e78 <_gp+0xfffe7b0c>
    267c:	d8802104 	addi	r2,sp,132
    2680:	d8800315 	stw	r2,12(sp)
    2684:	d8802504 	addi	r2,sp,148
    2688:	d8800215 	stw	r2,8(sp)
    268c:	d8802604 	addi	r2,sp,152
    2690:	d8800115 	stw	r2,4(sp)
    2694:	d8802a17 	ldw	r2,168(sp)
    2698:	d9403617 	ldw	r5,216(sp)
    269c:	d9002d17 	ldw	r4,180(sp)
    26a0:	d8800015 	stw	r2,0(sp)
    26a4:	01c000c4 	movi	r7,3
    26a8:	980d883a 	mov	r6,r19
    26ac:	da003d15 	stw	r8,244(sp)
    26b0:	0002e280 	call	2e28 <_dtoa_r>
    26b4:	d8c02a17 	ldw	r3,168(sp)
    26b8:	da003d17 	ldw	r8,244(sp)
    26bc:	1021883a 	mov	r16,r2
    26c0:	10f9883a 	add	fp,r2,r3
    26c4:	81000007 	ldb	r4,0(r16)
    26c8:	00800c04 	movi	r2,48
    26cc:	20805e26 	beq	r4,r2,2848 <___vfprintf_internal_r+0x2150>
    26d0:	d8c02617 	ldw	r3,152(sp)
    26d4:	e0f9883a 	add	fp,fp,r3
    26d8:	003e0a06 	br	1f04 <_gp+0xfffe7b98>
    26dc:	00c00b44 	movi	r3,45
    26e0:	24e0003c 	xorhi	r19,r4,32768
    26e4:	d8c02905 	stb	r3,164(sp)
    26e8:	003de906 	br	1e90 <_gp+0xfffe7b24>
    26ec:	d8c03217 	ldw	r3,200(sp)
    26f0:	00c07a0e 	bge	zero,r3,28dc <___vfprintf_internal_r+0x21e4>
    26f4:	00800044 	movi	r2,1
    26f8:	d9003317 	ldw	r4,204(sp)
    26fc:	1105883a 	add	r2,r2,r4
    2700:	d8802b15 	stw	r2,172(sp)
    2704:	10004e16 	blt	r2,zero,2840 <___vfprintf_internal_r+0x2148>
    2708:	044019c4 	movi	r17,103
    270c:	003e2106 	br	1f94 <_gp+0xfffe7c28>
    2710:	d9002a17 	ldw	r4,168(sp)
    2714:	d8802104 	addi	r2,sp,132
    2718:	d8800315 	stw	r2,12(sp)
    271c:	d9000015 	stw	r4,0(sp)
    2720:	d8802504 	addi	r2,sp,148
    2724:	d9403617 	ldw	r5,216(sp)
    2728:	d9002d17 	ldw	r4,180(sp)
    272c:	d8800215 	stw	r2,8(sp)
    2730:	d8802604 	addi	r2,sp,152
    2734:	d8800115 	stw	r2,4(sp)
    2738:	01c000c4 	movi	r7,3
    273c:	980d883a 	mov	r6,r19
    2740:	da003d15 	stw	r8,244(sp)
    2744:	0002e280 	call	2e28 <_dtoa_r>
    2748:	d8c02a17 	ldw	r3,168(sp)
    274c:	da003d17 	ldw	r8,244(sp)
    2750:	1021883a 	mov	r16,r2
    2754:	00801184 	movi	r2,70
    2758:	80f9883a 	add	fp,r16,r3
    275c:	88bfd926 	beq	r17,r2,26c4 <_gp+0xfffe8358>
    2760:	003de806 	br	1f04 <_gp+0xfffe7b98>
    2764:	d9002a17 	ldw	r4,168(sp)
    2768:	00c04d0e 	bge	zero,r3,28a0 <___vfprintf_internal_r+0x21a8>
    276c:	2000441e 	bne	r4,zero,2880 <___vfprintf_internal_r+0x2188>
    2770:	9480004c 	andi	r18,r18,1
    2774:	9000421e 	bne	r18,zero,2880 <___vfprintf_internal_r+0x2188>
    2778:	1805883a 	mov	r2,r3
    277c:	18006f16 	blt	r3,zero,293c <___vfprintf_internal_r+0x2244>
    2780:	d8c03217 	ldw	r3,200(sp)
    2784:	d8c02b15 	stw	r3,172(sp)
    2788:	003e0206 	br	1f94 <_gp+0xfffe7c28>
    278c:	df0022c4 	addi	fp,sp,139
    2790:	dc002a15 	stw	r16,168(sp)
    2794:	4027883a 	mov	r19,r8
    2798:	e021883a 	mov	r16,fp
    279c:	b009883a 	mov	r4,r22
    27a0:	01400284 	movi	r5,10
    27a4:	000aafc0 	call	aafc <__modsi3>
    27a8:	10800c04 	addi	r2,r2,48
    27ac:	843fffc4 	addi	r16,r16,-1
    27b0:	b009883a 	mov	r4,r22
    27b4:	01400284 	movi	r5,10
    27b8:	80800005 	stb	r2,0(r16)
    27bc:	000aa780 	call	aa78 <__divsi3>
    27c0:	102d883a 	mov	r22,r2
    27c4:	00800244 	movi	r2,9
    27c8:	15bff416 	blt	r2,r22,279c <_gp+0xfffe8430>
    27cc:	9811883a 	mov	r8,r19
    27d0:	b0800c04 	addi	r2,r22,48
    27d4:	8027883a 	mov	r19,r16
    27d8:	997fffc4 	addi	r5,r19,-1
    27dc:	98bfffc5 	stb	r2,-1(r19)
    27e0:	dc002a17 	ldw	r16,168(sp)
    27e4:	2f006d2e 	bgeu	r5,fp,299c <___vfprintf_internal_r+0x22a4>
    27e8:	d9c02384 	addi	r7,sp,142
    27ec:	3ccfc83a 	sub	r7,r7,r19
    27f0:	d9002344 	addi	r4,sp,141
    27f4:	e1cf883a 	add	r7,fp,r7
    27f8:	00000106 	br	2800 <___vfprintf_internal_r+0x2108>
    27fc:	28800003 	ldbu	r2,0(r5)
    2800:	20800005 	stb	r2,0(r4)
    2804:	21000044 	addi	r4,r4,1
    2808:	29400044 	addi	r5,r5,1
    280c:	393ffb1e 	bne	r7,r4,27fc <_gp+0xfffe8490>
    2810:	d8802304 	addi	r2,sp,140
    2814:	14c5c83a 	sub	r2,r2,r19
    2818:	d8c02344 	addi	r3,sp,141
    281c:	1885883a 	add	r2,r3,r2
    2820:	003f7006 	br	25e4 <_gp+0xfffe8278>
    2824:	0005883a 	mov	r2,zero
    2828:	003f0f06 	br	2468 <_gp+0xfffe80fc>
    282c:	d8c03217 	ldw	r3,200(sp)
    2830:	18c00044 	addi	r3,r3,1
    2834:	d8c02b15 	stw	r3,172(sp)
    2838:	1805883a 	mov	r2,r3
    283c:	183fb20e 	bge	r3,zero,2708 <_gp+0xfffe839c>
    2840:	0005883a 	mov	r2,zero
    2844:	003fb006 	br	2708 <_gp+0xfffe839c>
    2848:	d9003617 	ldw	r4,216(sp)
    284c:	000d883a 	mov	r6,zero
    2850:	000f883a 	mov	r7,zero
    2854:	980b883a 	mov	r5,r19
    2858:	d8c03c15 	stw	r3,240(sp)
    285c:	da003d15 	stw	r8,244(sp)
    2860:	000bea80 	call	bea8 <__eqdf2>
    2864:	d8c03c17 	ldw	r3,240(sp)
    2868:	da003d17 	ldw	r8,244(sp)
    286c:	103f9826 	beq	r2,zero,26d0 <_gp+0xfffe8364>
    2870:	00800044 	movi	r2,1
    2874:	10c7c83a 	sub	r3,r2,r3
    2878:	d8c02615 	stw	r3,152(sp)
    287c:	003f9506 	br	26d4 <_gp+0xfffe8368>
    2880:	d9002a17 	ldw	r4,168(sp)
    2884:	d8c03217 	ldw	r3,200(sp)
    2888:	20800044 	addi	r2,r4,1
    288c:	1885883a 	add	r2,r3,r2
    2890:	d8802b15 	stw	r2,172(sp)
    2894:	103dbf0e 	bge	r2,zero,1f94 <_gp+0xfffe7c28>
    2898:	0005883a 	mov	r2,zero
    289c:	003dbd06 	br	1f94 <_gp+0xfffe7c28>
    28a0:	2000201e 	bne	r4,zero,2924 <___vfprintf_internal_r+0x222c>
    28a4:	9480004c 	andi	r18,r18,1
    28a8:	90001e1e 	bne	r18,zero,2924 <___vfprintf_internal_r+0x222c>
    28ac:	00800044 	movi	r2,1
    28b0:	d8802b15 	stw	r2,172(sp)
    28b4:	003db706 	br	1f94 <_gp+0xfffe7c28>
    28b8:	00800b44 	movi	r2,45
    28bc:	05adc83a 	sub	r22,zero,r22
    28c0:	d8802305 	stb	r2,140(sp)
    28c4:	003f3f06 	br	25c4 <_gp+0xfffe8258>
    28c8:	0005883a 	mov	r2,zero
    28cc:	003f5206 	br	2618 <_gp+0xfffe82ac>
    28d0:	90a4703a 	and	r18,r18,r2
    28d4:	903f4e26 	beq	r18,zero,2610 <_gp+0xfffe82a4>
    28d8:	003f4a06 	br	2604 <_gp+0xfffe8298>
    28dc:	00800084 	movi	r2,2
    28e0:	10c5c83a 	sub	r2,r2,r3
    28e4:	003f8406 	br	26f8 <_gp+0xfffe838c>
    28e8:	d9402e17 	ldw	r5,184(sp)
    28ec:	d9002e17 	ldw	r4,184(sp)
    28f0:	ac400043 	ldbu	r17,1(r21)
    28f4:	29400017 	ldw	r5,0(r5)
    28f8:	20800104 	addi	r2,r4,4
    28fc:	d8802e15 	stw	r2,184(sp)
    2900:	d9402a15 	stw	r5,168(sp)
    2904:	182b883a 	mov	r21,r3
    2908:	283e7b0e 	bge	r5,zero,22f8 <_gp+0xfffe7f8c>
    290c:	8c403fcc 	andi	r17,r17,255
    2910:	017fffc4 	movi	r5,-1
    2914:	8c40201c 	xori	r17,r17,128
    2918:	d9402a15 	stw	r5,168(sp)
    291c:	8c7fe004 	addi	r17,r17,-128
    2920:	0037d706 	br	880 <_gp+0xfffe6514>
    2924:	d8c02a17 	ldw	r3,168(sp)
    2928:	18c00084 	addi	r3,r3,2
    292c:	d8c02b15 	stw	r3,172(sp)
    2930:	1805883a 	mov	r2,r3
    2934:	183d970e 	bge	r3,zero,1f94 <_gp+0xfffe7c28>
    2938:	003fd706 	br	2898 <_gp+0xfffe852c>
    293c:	0005883a 	mov	r2,zero
    2940:	003f8f06 	br	2780 <_gp+0xfffe8414>
    2944:	9080004c 	andi	r2,r18,1
    2948:	103f821e 	bne	r2,zero,2754 <_gp+0xfffe83e8>
    294c:	d8802117 	ldw	r2,132(sp)
    2950:	1405c83a 	sub	r2,r2,r16
    2954:	d8803315 	stw	r2,204(sp)
    2958:	b47ef426 	beq	r22,r17,252c <_gp+0xfffe81c0>
    295c:	dd802617 	ldw	r22,152(sp)
    2960:	003f1206 	br	25ac <_gp+0xfffe8240>
    2964:	d8c02b03 	ldbu	r3,172(sp)
    2968:	d8c02785 	stb	r3,158(sp)
    296c:	0038df06 	br	cec <_gp+0xfffe6980>
    2970:	d8c02b03 	ldbu	r3,172(sp)
    2974:	d8c02785 	stb	r3,158(sp)
    2978:	0038aa06 	br	c24 <_gp+0xfffe68b8>
    297c:	d8c02b03 	ldbu	r3,172(sp)
    2980:	d8c02785 	stb	r3,158(sp)
    2984:	003a4306 	br	1294 <_gp+0xfffe6f28>
    2988:	d8c02b03 	ldbu	r3,172(sp)
    298c:	d8c02785 	stb	r3,158(sp)
    2990:	003af506 	br	1568 <_gp+0xfffe71fc>
    2994:	0005883a 	mov	r2,zero
    2998:	003d7b06 	br	1f88 <_gp+0xfffe7c1c>
    299c:	d8802344 	addi	r2,sp,141
    29a0:	003f1006 	br	25e4 <_gp+0xfffe8278>
    29a4:	d8c02b03 	ldbu	r3,172(sp)
    29a8:	d8c02785 	stb	r3,158(sp)
    29ac:	0038fd06 	br	da4 <_gp+0xfffe6a38>
    29b0:	d8c02b03 	ldbu	r3,172(sp)
    29b4:	d8c02785 	stb	r3,158(sp)
    29b8:	003a9706 	br	1418 <_gp+0xfffe70ac>
    29bc:	d8c02b03 	ldbu	r3,172(sp)
    29c0:	d8c02785 	stb	r3,158(sp)
    29c4:	003a1806 	br	1228 <_gp+0xfffe6ebc>
    29c8:	d8c02b03 	ldbu	r3,172(sp)
    29cc:	d8c02785 	stb	r3,158(sp)
    29d0:	003abe06 	br	14cc <_gp+0xfffe7160>

000029d4 <__vfprintf_internal>:
    29d4:	00800074 	movhi	r2,1
    29d8:	1088dc04 	addi	r2,r2,9072
    29dc:	300f883a 	mov	r7,r6
    29e0:	280d883a 	mov	r6,r5
    29e4:	200b883a 	mov	r5,r4
    29e8:	11000017 	ldw	r4,0(r2)
    29ec:	00006f81 	jmpi	6f8 <___vfprintf_internal_r>

000029f0 <__sbprintf>:
    29f0:	2880030b 	ldhu	r2,12(r5)
    29f4:	2ac01917 	ldw	r11,100(r5)
    29f8:	2a80038b 	ldhu	r10,14(r5)
    29fc:	2a400717 	ldw	r9,28(r5)
    2a00:	2a000917 	ldw	r8,36(r5)
    2a04:	defee204 	addi	sp,sp,-1144
    2a08:	00c10004 	movi	r3,1024
    2a0c:	dc011a15 	stw	r16,1128(sp)
    2a10:	10bfff4c 	andi	r2,r2,65533
    2a14:	2821883a 	mov	r16,r5
    2a18:	d8cb883a 	add	r5,sp,r3
    2a1c:	dc811c15 	stw	r18,1136(sp)
    2a20:	dc411b15 	stw	r17,1132(sp)
    2a24:	dfc11d15 	stw	ra,1140(sp)
    2a28:	2025883a 	mov	r18,r4
    2a2c:	d881030d 	sth	r2,1036(sp)
    2a30:	dac11915 	stw	r11,1124(sp)
    2a34:	da81038d 	sth	r10,1038(sp)
    2a38:	da410715 	stw	r9,1052(sp)
    2a3c:	da010915 	stw	r8,1060(sp)
    2a40:	dec10015 	stw	sp,1024(sp)
    2a44:	dec10415 	stw	sp,1040(sp)
    2a48:	d8c10215 	stw	r3,1032(sp)
    2a4c:	d8c10515 	stw	r3,1044(sp)
    2a50:	d8010615 	stw	zero,1048(sp)
    2a54:	00006f80 	call	6f8 <___vfprintf_internal_r>
    2a58:	1023883a 	mov	r17,r2
    2a5c:	10000416 	blt	r2,zero,2a70 <__sbprintf+0x80>
    2a60:	d9410004 	addi	r5,sp,1024
    2a64:	9009883a 	mov	r4,r18
    2a68:	00046cc0 	call	46cc <_fflush_r>
    2a6c:	10000d1e 	bne	r2,zero,2aa4 <__sbprintf+0xb4>
    2a70:	d881030b 	ldhu	r2,1036(sp)
    2a74:	1080100c 	andi	r2,r2,64
    2a78:	10000326 	beq	r2,zero,2a88 <__sbprintf+0x98>
    2a7c:	8080030b 	ldhu	r2,12(r16)
    2a80:	10801014 	ori	r2,r2,64
    2a84:	8080030d 	sth	r2,12(r16)
    2a88:	8805883a 	mov	r2,r17
    2a8c:	dfc11d17 	ldw	ra,1140(sp)
    2a90:	dc811c17 	ldw	r18,1136(sp)
    2a94:	dc411b17 	ldw	r17,1132(sp)
    2a98:	dc011a17 	ldw	r16,1128(sp)
    2a9c:	dec11e04 	addi	sp,sp,1144
    2aa0:	f800283a 	ret
    2aa4:	047fffc4 	movi	r17,-1
    2aa8:	003ff106 	br	2a70 <_gp+0xfffe8704>

00002aac <__swsetup_r>:
    2aac:	00800074 	movhi	r2,1
    2ab0:	defffd04 	addi	sp,sp,-12
    2ab4:	1088dc04 	addi	r2,r2,9072
    2ab8:	dc400115 	stw	r17,4(sp)
    2abc:	2023883a 	mov	r17,r4
    2ac0:	11000017 	ldw	r4,0(r2)
    2ac4:	dc000015 	stw	r16,0(sp)
    2ac8:	dfc00215 	stw	ra,8(sp)
    2acc:	2821883a 	mov	r16,r5
    2ad0:	20000226 	beq	r4,zero,2adc <__swsetup_r+0x30>
    2ad4:	20800e17 	ldw	r2,56(r4)
    2ad8:	10003126 	beq	r2,zero,2ba0 <__swsetup_r+0xf4>
    2adc:	8080030b 	ldhu	r2,12(r16)
    2ae0:	10c0020c 	andi	r3,r2,8
    2ae4:	1009883a 	mov	r4,r2
    2ae8:	18000f26 	beq	r3,zero,2b28 <__swsetup_r+0x7c>
    2aec:	80c00417 	ldw	r3,16(r16)
    2af0:	18001526 	beq	r3,zero,2b48 <__swsetup_r+0x9c>
    2af4:	1100004c 	andi	r4,r2,1
    2af8:	20001c1e 	bne	r4,zero,2b6c <__swsetup_r+0xc0>
    2afc:	1080008c 	andi	r2,r2,2
    2b00:	1000291e 	bne	r2,zero,2ba8 <__swsetup_r+0xfc>
    2b04:	80800517 	ldw	r2,20(r16)
    2b08:	80800215 	stw	r2,8(r16)
    2b0c:	18001c26 	beq	r3,zero,2b80 <__swsetup_r+0xd4>
    2b10:	0005883a 	mov	r2,zero
    2b14:	dfc00217 	ldw	ra,8(sp)
    2b18:	dc400117 	ldw	r17,4(sp)
    2b1c:	dc000017 	ldw	r16,0(sp)
    2b20:	dec00304 	addi	sp,sp,12
    2b24:	f800283a 	ret
    2b28:	2080040c 	andi	r2,r4,16
    2b2c:	10002e26 	beq	r2,zero,2be8 <__swsetup_r+0x13c>
    2b30:	2080010c 	andi	r2,r4,4
    2b34:	10001e1e 	bne	r2,zero,2bb0 <__swsetup_r+0x104>
    2b38:	80c00417 	ldw	r3,16(r16)
    2b3c:	20800214 	ori	r2,r4,8
    2b40:	8080030d 	sth	r2,12(r16)
    2b44:	183feb1e 	bne	r3,zero,2af4 <_gp+0xfffe8788>
    2b48:	1100a00c 	andi	r4,r2,640
    2b4c:	01408004 	movi	r5,512
    2b50:	217fe826 	beq	r4,r5,2af4 <_gp+0xfffe8788>
    2b54:	800b883a 	mov	r5,r16
    2b58:	8809883a 	mov	r4,r17
    2b5c:	00051a00 	call	51a0 <__smakebuf_r>
    2b60:	8080030b 	ldhu	r2,12(r16)
    2b64:	80c00417 	ldw	r3,16(r16)
    2b68:	003fe206 	br	2af4 <_gp+0xfffe8788>
    2b6c:	80800517 	ldw	r2,20(r16)
    2b70:	80000215 	stw	zero,8(r16)
    2b74:	0085c83a 	sub	r2,zero,r2
    2b78:	80800615 	stw	r2,24(r16)
    2b7c:	183fe41e 	bne	r3,zero,2b10 <_gp+0xfffe87a4>
    2b80:	80c0030b 	ldhu	r3,12(r16)
    2b84:	0005883a 	mov	r2,zero
    2b88:	1900200c 	andi	r4,r3,128
    2b8c:	203fe126 	beq	r4,zero,2b14 <_gp+0xfffe87a8>
    2b90:	18c01014 	ori	r3,r3,64
    2b94:	80c0030d 	sth	r3,12(r16)
    2b98:	00bfffc4 	movi	r2,-1
    2b9c:	003fdd06 	br	2b14 <_gp+0xfffe87a8>
    2ba0:	0004ab80 	call	4ab8 <__sinit>
    2ba4:	003fcd06 	br	2adc <_gp+0xfffe8770>
    2ba8:	0005883a 	mov	r2,zero
    2bac:	003fd606 	br	2b08 <_gp+0xfffe879c>
    2bb0:	81400c17 	ldw	r5,48(r16)
    2bb4:	28000626 	beq	r5,zero,2bd0 <__swsetup_r+0x124>
    2bb8:	80801004 	addi	r2,r16,64
    2bbc:	28800326 	beq	r5,r2,2bcc <__swsetup_r+0x120>
    2bc0:	8809883a 	mov	r4,r17
    2bc4:	0004c2c0 	call	4c2c <_free_r>
    2bc8:	8100030b 	ldhu	r4,12(r16)
    2bcc:	80000c15 	stw	zero,48(r16)
    2bd0:	80c00417 	ldw	r3,16(r16)
    2bd4:	00bff6c4 	movi	r2,-37
    2bd8:	1108703a 	and	r4,r2,r4
    2bdc:	80000115 	stw	zero,4(r16)
    2be0:	80c00015 	stw	r3,0(r16)
    2be4:	003fd506 	br	2b3c <_gp+0xfffe87d0>
    2be8:	00800244 	movi	r2,9
    2bec:	88800015 	stw	r2,0(r17)
    2bf0:	20801014 	ori	r2,r4,64
    2bf4:	8080030d 	sth	r2,12(r16)
    2bf8:	00bfffc4 	movi	r2,-1
    2bfc:	003fc506 	br	2b14 <_gp+0xfffe87a8>

00002c00 <quorem>:
    2c00:	defff204 	addi	sp,sp,-56
    2c04:	ddc00b15 	stw	r23,44(sp)
    2c08:	20800417 	ldw	r2,16(r4)
    2c0c:	2dc00417 	ldw	r23,16(r5)
    2c10:	dfc00d15 	stw	ra,52(sp)
    2c14:	df000c15 	stw	fp,48(sp)
    2c18:	dd800a15 	stw	r22,40(sp)
    2c1c:	dd400915 	stw	r21,36(sp)
    2c20:	dd000815 	stw	r20,32(sp)
    2c24:	dcc00715 	stw	r19,28(sp)
    2c28:	dc800615 	stw	r18,24(sp)
    2c2c:	dc400515 	stw	r17,20(sp)
    2c30:	dc000415 	stw	r16,16(sp)
    2c34:	15c07a16 	blt	r2,r23,2e20 <quorem+0x220>
    2c38:	bdffffc4 	addi	r23,r23,-1
    2c3c:	bde9883a 	add	r20,r23,r23
    2c40:	28c00504 	addi	r3,r5,20
    2c44:	a529883a 	add	r20,r20,r20
    2c48:	1d39883a 	add	fp,r3,r20
    2c4c:	24c00504 	addi	r19,r4,20
    2c50:	d9400215 	stw	r5,8(sp)
    2c54:	9d29883a 	add	r20,r19,r20
    2c58:	e1400017 	ldw	r5,0(fp)
    2c5c:	d9000015 	stw	r4,0(sp)
    2c60:	a1000017 	ldw	r4,0(r20)
    2c64:	29400044 	addi	r5,r5,1
    2c68:	d8c00115 	stw	r3,4(sp)
    2c6c:	dd000315 	stw	r20,12(sp)
    2c70:	000ab700 	call	ab70 <__udivsi3>
    2c74:	1025883a 	mov	r18,r2
    2c78:	10003026 	beq	r2,zero,2d3c <quorem+0x13c>
    2c7c:	dc400117 	ldw	r17,4(sp)
    2c80:	9829883a 	mov	r20,r19
    2c84:	002d883a 	mov	r22,zero
    2c88:	0021883a 	mov	r16,zero
    2c8c:	8d400017 	ldw	r21,0(r17)
    2c90:	900b883a 	mov	r5,r18
    2c94:	8c400104 	addi	r17,r17,4
    2c98:	a93fffcc 	andi	r4,r21,65535
    2c9c:	000049c0 	call	49c <__mulsi3>
    2ca0:	a808d43a 	srli	r4,r21,16
    2ca4:	900b883a 	mov	r5,r18
    2ca8:	15ad883a 	add	r22,r2,r22
    2cac:	000049c0 	call	49c <__mulsi3>
    2cb0:	a1000017 	ldw	r4,0(r20)
    2cb4:	b00cd43a 	srli	r6,r22,16
    2cb8:	b0ffffcc 	andi	r3,r22,65535
    2cbc:	217fffcc 	andi	r5,r4,65535
    2cc0:	2c21883a 	add	r16,r5,r16
    2cc4:	80c7c83a 	sub	r3,r16,r3
    2cc8:	2008d43a 	srli	r4,r4,16
    2ccc:	1185883a 	add	r2,r2,r6
    2cd0:	1821d43a 	srai	r16,r3,16
    2cd4:	117fffcc 	andi	r5,r2,65535
    2cd8:	2149c83a 	sub	r4,r4,r5
    2cdc:	2421883a 	add	r16,r4,r16
    2ce0:	8008943a 	slli	r4,r16,16
    2ce4:	18ffffcc 	andi	r3,r3,65535
    2ce8:	102cd43a 	srli	r22,r2,16
    2cec:	20c8b03a 	or	r4,r4,r3
    2cf0:	a1000015 	stw	r4,0(r20)
    2cf4:	8021d43a 	srai	r16,r16,16
    2cf8:	a5000104 	addi	r20,r20,4
    2cfc:	e47fe32e 	bgeu	fp,r17,2c8c <_gp+0xfffe8920>
    2d00:	d8c00317 	ldw	r3,12(sp)
    2d04:	18800017 	ldw	r2,0(r3)
    2d08:	10000c1e 	bne	r2,zero,2d3c <quorem+0x13c>
    2d0c:	18bfff04 	addi	r2,r3,-4
    2d10:	9880082e 	bgeu	r19,r2,2d34 <quorem+0x134>
    2d14:	18ffff17 	ldw	r3,-4(r3)
    2d18:	18000326 	beq	r3,zero,2d28 <quorem+0x128>
    2d1c:	00000506 	br	2d34 <quorem+0x134>
    2d20:	10c00017 	ldw	r3,0(r2)
    2d24:	1800031e 	bne	r3,zero,2d34 <quorem+0x134>
    2d28:	10bfff04 	addi	r2,r2,-4
    2d2c:	bdffffc4 	addi	r23,r23,-1
    2d30:	98bffb36 	bltu	r19,r2,2d20 <_gp+0xfffe89b4>
    2d34:	d8c00017 	ldw	r3,0(sp)
    2d38:	1dc00415 	stw	r23,16(r3)
    2d3c:	d9400217 	ldw	r5,8(sp)
    2d40:	d9000017 	ldw	r4,0(sp)
    2d44:	00068400 	call	6840 <__mcmp>
    2d48:	10002816 	blt	r2,zero,2dec <quorem+0x1ec>
    2d4c:	dc400117 	ldw	r17,4(sp)
    2d50:	94800044 	addi	r18,r18,1
    2d54:	980d883a 	mov	r6,r19
    2d58:	0007883a 	mov	r3,zero
    2d5c:	31000017 	ldw	r4,0(r6)
    2d60:	89400017 	ldw	r5,0(r17)
    2d64:	31800104 	addi	r6,r6,4
    2d68:	20bfffcc 	andi	r2,r4,65535
    2d6c:	10c7883a 	add	r3,r2,r3
    2d70:	28bfffcc 	andi	r2,r5,65535
    2d74:	1885c83a 	sub	r2,r3,r2
    2d78:	280ad43a 	srli	r5,r5,16
    2d7c:	2008d43a 	srli	r4,r4,16
    2d80:	1007d43a 	srai	r3,r2,16
    2d84:	10bfffcc 	andi	r2,r2,65535
    2d88:	2149c83a 	sub	r4,r4,r5
    2d8c:	20c9883a 	add	r4,r4,r3
    2d90:	200a943a 	slli	r5,r4,16
    2d94:	8c400104 	addi	r17,r17,4
    2d98:	2007d43a 	srai	r3,r4,16
    2d9c:	2884b03a 	or	r2,r5,r2
    2da0:	30bfff15 	stw	r2,-4(r6)
    2da4:	e47fed2e 	bgeu	fp,r17,2d5c <_gp+0xfffe89f0>
    2da8:	bdc5883a 	add	r2,r23,r23
    2dac:	1085883a 	add	r2,r2,r2
    2db0:	9887883a 	add	r3,r19,r2
    2db4:	18800017 	ldw	r2,0(r3)
    2db8:	10000c1e 	bne	r2,zero,2dec <quorem+0x1ec>
    2dbc:	18bfff04 	addi	r2,r3,-4
    2dc0:	9880082e 	bgeu	r19,r2,2de4 <quorem+0x1e4>
    2dc4:	18ffff17 	ldw	r3,-4(r3)
    2dc8:	18000326 	beq	r3,zero,2dd8 <quorem+0x1d8>
    2dcc:	00000506 	br	2de4 <quorem+0x1e4>
    2dd0:	10c00017 	ldw	r3,0(r2)
    2dd4:	1800031e 	bne	r3,zero,2de4 <quorem+0x1e4>
    2dd8:	10bfff04 	addi	r2,r2,-4
    2ddc:	bdffffc4 	addi	r23,r23,-1
    2de0:	98bffb36 	bltu	r19,r2,2dd0 <_gp+0xfffe8a64>
    2de4:	d8c00017 	ldw	r3,0(sp)
    2de8:	1dc00415 	stw	r23,16(r3)
    2dec:	9005883a 	mov	r2,r18
    2df0:	dfc00d17 	ldw	ra,52(sp)
    2df4:	df000c17 	ldw	fp,48(sp)
    2df8:	ddc00b17 	ldw	r23,44(sp)
    2dfc:	dd800a17 	ldw	r22,40(sp)
    2e00:	dd400917 	ldw	r21,36(sp)
    2e04:	dd000817 	ldw	r20,32(sp)
    2e08:	dcc00717 	ldw	r19,28(sp)
    2e0c:	dc800617 	ldw	r18,24(sp)
    2e10:	dc400517 	ldw	r17,20(sp)
    2e14:	dc000417 	ldw	r16,16(sp)
    2e18:	dec00e04 	addi	sp,sp,56
    2e1c:	f800283a 	ret
    2e20:	0005883a 	mov	r2,zero
    2e24:	003ff206 	br	2df0 <_gp+0xfffe8a84>

00002e28 <_dtoa_r>:
    2e28:	20801017 	ldw	r2,64(r4)
    2e2c:	deffde04 	addi	sp,sp,-136
    2e30:	df002015 	stw	fp,128(sp)
    2e34:	dcc01b15 	stw	r19,108(sp)
    2e38:	dc801a15 	stw	r18,104(sp)
    2e3c:	dc401915 	stw	r17,100(sp)
    2e40:	dc001815 	stw	r16,96(sp)
    2e44:	dfc02115 	stw	ra,132(sp)
    2e48:	ddc01f15 	stw	r23,124(sp)
    2e4c:	dd801e15 	stw	r22,120(sp)
    2e50:	dd401d15 	stw	r21,116(sp)
    2e54:	dd001c15 	stw	r20,112(sp)
    2e58:	d9c00315 	stw	r7,12(sp)
    2e5c:	2039883a 	mov	fp,r4
    2e60:	3023883a 	mov	r17,r6
    2e64:	2825883a 	mov	r18,r5
    2e68:	dc002417 	ldw	r16,144(sp)
    2e6c:	3027883a 	mov	r19,r6
    2e70:	10000826 	beq	r2,zero,2e94 <_dtoa_r+0x6c>
    2e74:	21801117 	ldw	r6,68(r4)
    2e78:	00c00044 	movi	r3,1
    2e7c:	100b883a 	mov	r5,r2
    2e80:	1986983a 	sll	r3,r3,r6
    2e84:	11800115 	stw	r6,4(r2)
    2e88:	10c00215 	stw	r3,8(r2)
    2e8c:	0005f640 	call	5f64 <_Bfree>
    2e90:	e0001015 	stw	zero,64(fp)
    2e94:	88002e16 	blt	r17,zero,2f50 <_dtoa_r+0x128>
    2e98:	80000015 	stw	zero,0(r16)
    2e9c:	889ffc2c 	andhi	r2,r17,32752
    2ea0:	00dffc34 	movhi	r3,32752
    2ea4:	10c01c26 	beq	r2,r3,2f18 <_dtoa_r+0xf0>
    2ea8:	000d883a 	mov	r6,zero
    2eac:	000f883a 	mov	r7,zero
    2eb0:	9009883a 	mov	r4,r18
    2eb4:	980b883a 	mov	r5,r19
    2eb8:	000bea80 	call	bea8 <__eqdf2>
    2ebc:	10002b1e 	bne	r2,zero,2f6c <_dtoa_r+0x144>
    2ec0:	d9c02317 	ldw	r7,140(sp)
    2ec4:	00800044 	movi	r2,1
    2ec8:	38800015 	stw	r2,0(r7)
    2ecc:	d8802517 	ldw	r2,148(sp)
    2ed0:	10019e26 	beq	r2,zero,354c <_dtoa_r+0x724>
    2ed4:	d8c02517 	ldw	r3,148(sp)
    2ed8:	00800074 	movhi	r2,1
    2edc:	10818344 	addi	r2,r2,1549
    2ee0:	18800015 	stw	r2,0(r3)
    2ee4:	10bfffc4 	addi	r2,r2,-1
    2ee8:	dfc02117 	ldw	ra,132(sp)
    2eec:	df002017 	ldw	fp,128(sp)
    2ef0:	ddc01f17 	ldw	r23,124(sp)
    2ef4:	dd801e17 	ldw	r22,120(sp)
    2ef8:	dd401d17 	ldw	r21,116(sp)
    2efc:	dd001c17 	ldw	r20,112(sp)
    2f00:	dcc01b17 	ldw	r19,108(sp)
    2f04:	dc801a17 	ldw	r18,104(sp)
    2f08:	dc401917 	ldw	r17,100(sp)
    2f0c:	dc001817 	ldw	r16,96(sp)
    2f10:	dec02204 	addi	sp,sp,136
    2f14:	f800283a 	ret
    2f18:	d8c02317 	ldw	r3,140(sp)
    2f1c:	0089c3c4 	movi	r2,9999
    2f20:	18800015 	stw	r2,0(r3)
    2f24:	90017726 	beq	r18,zero,3504 <_dtoa_r+0x6dc>
    2f28:	00800074 	movhi	r2,1
    2f2c:	10818f04 	addi	r2,r2,1596
    2f30:	d9002517 	ldw	r4,148(sp)
    2f34:	203fec26 	beq	r4,zero,2ee8 <_gp+0xfffe8b7c>
    2f38:	10c000c7 	ldb	r3,3(r2)
    2f3c:	1801781e 	bne	r3,zero,3520 <_dtoa_r+0x6f8>
    2f40:	10c000c4 	addi	r3,r2,3
    2f44:	d9802517 	ldw	r6,148(sp)
    2f48:	30c00015 	stw	r3,0(r6)
    2f4c:	003fe606 	br	2ee8 <_gp+0xfffe8b7c>
    2f50:	04e00034 	movhi	r19,32768
    2f54:	9cffffc4 	addi	r19,r19,-1
    2f58:	00800044 	movi	r2,1
    2f5c:	8ce6703a 	and	r19,r17,r19
    2f60:	80800015 	stw	r2,0(r16)
    2f64:	9823883a 	mov	r17,r19
    2f68:	003fcc06 	br	2e9c <_gp+0xfffe8b30>
    2f6c:	d8800204 	addi	r2,sp,8
    2f70:	d8800015 	stw	r2,0(sp)
    2f74:	d9c00104 	addi	r7,sp,4
    2f78:	900b883a 	mov	r5,r18
    2f7c:	980d883a 	mov	r6,r19
    2f80:	e009883a 	mov	r4,fp
    2f84:	8820d53a 	srli	r16,r17,20
    2f88:	0006c0c0 	call	6c0c <__d2b>
    2f8c:	d8800915 	stw	r2,36(sp)
    2f90:	8001651e 	bne	r16,zero,3528 <_dtoa_r+0x700>
    2f94:	dd800217 	ldw	r22,8(sp)
    2f98:	dc000117 	ldw	r16,4(sp)
    2f9c:	00800804 	movi	r2,32
    2fa0:	b421883a 	add	r16,r22,r16
    2fa4:	80c10c84 	addi	r3,r16,1074
    2fa8:	10c2d10e 	bge	r2,r3,3af0 <_dtoa_r+0xcc8>
    2fac:	00801004 	movi	r2,64
    2fb0:	81010484 	addi	r4,r16,1042
    2fb4:	10c7c83a 	sub	r3,r2,r3
    2fb8:	9108d83a 	srl	r4,r18,r4
    2fbc:	88e2983a 	sll	r17,r17,r3
    2fc0:	2448b03a 	or	r4,r4,r17
    2fc4:	000d3c40 	call	d3c4 <__floatunsidf>
    2fc8:	017f8434 	movhi	r5,65040
    2fcc:	01800044 	movi	r6,1
    2fd0:	1009883a 	mov	r4,r2
    2fd4:	194b883a 	add	r5,r3,r5
    2fd8:	843fffc4 	addi	r16,r16,-1
    2fdc:	d9801115 	stw	r6,68(sp)
    2fe0:	000d883a 	mov	r6,zero
    2fe4:	01cffe34 	movhi	r7,16376
    2fe8:	000c96c0 	call	c96c <__subdf3>
    2fec:	0198dbf4 	movhi	r6,25455
    2ff0:	01cff4f4 	movhi	r7,16339
    2ff4:	3190d844 	addi	r6,r6,17249
    2ff8:	39e1e9c4 	addi	r7,r7,-30809
    2ffc:	1009883a 	mov	r4,r2
    3000:	180b883a 	mov	r5,r3
    3004:	000c1000 	call	c100 <__muldf3>
    3008:	01a2d874 	movhi	r6,35681
    300c:	01cff1f4 	movhi	r7,16327
    3010:	31b22cc4 	addi	r6,r6,-14157
    3014:	39e28a04 	addi	r7,r7,-30168
    3018:	180b883a 	mov	r5,r3
    301c:	1009883a 	mov	r4,r2
    3020:	000ac2c0 	call	ac2c <__adddf3>
    3024:	8009883a 	mov	r4,r16
    3028:	1029883a 	mov	r20,r2
    302c:	1823883a 	mov	r17,r3
    3030:	000d2e80 	call	d2e8 <__floatsidf>
    3034:	019427f4 	movhi	r6,20639
    3038:	01cff4f4 	movhi	r7,16339
    303c:	319e7ec4 	addi	r6,r6,31227
    3040:	39d104c4 	addi	r7,r7,17427
    3044:	1009883a 	mov	r4,r2
    3048:	180b883a 	mov	r5,r3
    304c:	000c1000 	call	c100 <__muldf3>
    3050:	100d883a 	mov	r6,r2
    3054:	180f883a 	mov	r7,r3
    3058:	a009883a 	mov	r4,r20
    305c:	880b883a 	mov	r5,r17
    3060:	000ac2c0 	call	ac2c <__adddf3>
    3064:	1009883a 	mov	r4,r2
    3068:	180b883a 	mov	r5,r3
    306c:	1029883a 	mov	r20,r2
    3070:	1823883a 	mov	r17,r3
    3074:	000d2680 	call	d268 <__fixdfsi>
    3078:	000d883a 	mov	r6,zero
    307c:	000f883a 	mov	r7,zero
    3080:	a009883a 	mov	r4,r20
    3084:	880b883a 	mov	r5,r17
    3088:	d8800515 	stw	r2,20(sp)
    308c:	000c00c0 	call	c00c <__ledf2>
    3090:	10028716 	blt	r2,zero,3ab0 <_dtoa_r+0xc88>
    3094:	d8c00517 	ldw	r3,20(sp)
    3098:	00800584 	movi	r2,22
    309c:	10c27536 	bltu	r2,r3,3a74 <_dtoa_r+0xc4c>
    30a0:	180490fa 	slli	r2,r3,3
    30a4:	00c00074 	movhi	r3,1
    30a8:	18c1ab04 	addi	r3,r3,1708
    30ac:	1885883a 	add	r2,r3,r2
    30b0:	11000017 	ldw	r4,0(r2)
    30b4:	11400117 	ldw	r5,4(r2)
    30b8:	900d883a 	mov	r6,r18
    30bc:	980f883a 	mov	r7,r19
    30c0:	000bf300 	call	bf30 <__gedf2>
    30c4:	00828d0e 	bge	zero,r2,3afc <_dtoa_r+0xcd4>
    30c8:	d9000517 	ldw	r4,20(sp)
    30cc:	d8000e15 	stw	zero,56(sp)
    30d0:	213fffc4 	addi	r4,r4,-1
    30d4:	d9000515 	stw	r4,20(sp)
    30d8:	b42dc83a 	sub	r22,r22,r16
    30dc:	b5bfffc4 	addi	r22,r22,-1
    30e0:	b0026f16 	blt	r22,zero,3aa0 <_dtoa_r+0xc78>
    30e4:	d8000815 	stw	zero,32(sp)
    30e8:	d9c00517 	ldw	r7,20(sp)
    30ec:	38026416 	blt	r7,zero,3a80 <_dtoa_r+0xc58>
    30f0:	b1ed883a 	add	r22,r22,r7
    30f4:	d9c00d15 	stw	r7,52(sp)
    30f8:	d8000a15 	stw	zero,40(sp)
    30fc:	d9800317 	ldw	r6,12(sp)
    3100:	00800244 	movi	r2,9
    3104:	11811436 	bltu	r2,r6,3558 <_dtoa_r+0x730>
    3108:	00800144 	movi	r2,5
    310c:	1184e10e 	bge	r2,r6,4494 <_dtoa_r+0x166c>
    3110:	31bfff04 	addi	r6,r6,-4
    3114:	d9800315 	stw	r6,12(sp)
    3118:	0023883a 	mov	r17,zero
    311c:	d9800317 	ldw	r6,12(sp)
    3120:	008000c4 	movi	r2,3
    3124:	30836726 	beq	r6,r2,3ec4 <_dtoa_r+0x109c>
    3128:	1183410e 	bge	r2,r6,3e30 <_dtoa_r+0x1008>
    312c:	d9c00317 	ldw	r7,12(sp)
    3130:	00800104 	movi	r2,4
    3134:	38827c26 	beq	r7,r2,3b28 <_dtoa_r+0xd00>
    3138:	00800144 	movi	r2,5
    313c:	3884c41e 	bne	r7,r2,4450 <_dtoa_r+0x1628>
    3140:	00800044 	movi	r2,1
    3144:	d8800b15 	stw	r2,44(sp)
    3148:	d8c00517 	ldw	r3,20(sp)
    314c:	d9002217 	ldw	r4,136(sp)
    3150:	1907883a 	add	r3,r3,r4
    3154:	19800044 	addi	r6,r3,1
    3158:	d8c00c15 	stw	r3,48(sp)
    315c:	d9800615 	stw	r6,24(sp)
    3160:	0183a40e 	bge	zero,r6,3ff4 <_dtoa_r+0x11cc>
    3164:	d9800617 	ldw	r6,24(sp)
    3168:	3021883a 	mov	r16,r6
    316c:	e0001115 	stw	zero,68(fp)
    3170:	008005c4 	movi	r2,23
    3174:	1184c92e 	bgeu	r2,r6,449c <_dtoa_r+0x1674>
    3178:	00c00044 	movi	r3,1
    317c:	00800104 	movi	r2,4
    3180:	1085883a 	add	r2,r2,r2
    3184:	11000504 	addi	r4,r2,20
    3188:	180b883a 	mov	r5,r3
    318c:	18c00044 	addi	r3,r3,1
    3190:	313ffb2e 	bgeu	r6,r4,3180 <_gp+0xfffe8e14>
    3194:	e1401115 	stw	r5,68(fp)
    3198:	e009883a 	mov	r4,fp
    319c:	0005ebc0 	call	5ebc <_Balloc>
    31a0:	d8800715 	stw	r2,28(sp)
    31a4:	e0801015 	stw	r2,64(fp)
    31a8:	00800384 	movi	r2,14
    31ac:	1400f736 	bltu	r2,r16,358c <_dtoa_r+0x764>
    31b0:	8800f626 	beq	r17,zero,358c <_dtoa_r+0x764>
    31b4:	d9c00517 	ldw	r7,20(sp)
    31b8:	01c39a0e 	bge	zero,r7,4024 <_dtoa_r+0x11fc>
    31bc:	388003cc 	andi	r2,r7,15
    31c0:	100490fa 	slli	r2,r2,3
    31c4:	382bd13a 	srai	r21,r7,4
    31c8:	00c00074 	movhi	r3,1
    31cc:	18c1ab04 	addi	r3,r3,1708
    31d0:	1885883a 	add	r2,r3,r2
    31d4:	a8c0040c 	andi	r3,r21,16
    31d8:	12400017 	ldw	r9,0(r2)
    31dc:	12000117 	ldw	r8,4(r2)
    31e0:	18037926 	beq	r3,zero,3fc8 <_dtoa_r+0x11a0>
    31e4:	00800074 	movhi	r2,1
    31e8:	1081a104 	addi	r2,r2,1668
    31ec:	11800817 	ldw	r6,32(r2)
    31f0:	11c00917 	ldw	r7,36(r2)
    31f4:	9009883a 	mov	r4,r18
    31f8:	980b883a 	mov	r5,r19
    31fc:	da001715 	stw	r8,92(sp)
    3200:	da401615 	stw	r9,88(sp)
    3204:	000b4d80 	call	b4d8 <__divdf3>
    3208:	da001717 	ldw	r8,92(sp)
    320c:	da401617 	ldw	r9,88(sp)
    3210:	ad4003cc 	andi	r21,r21,15
    3214:	040000c4 	movi	r16,3
    3218:	1023883a 	mov	r17,r2
    321c:	1829883a 	mov	r20,r3
    3220:	a8001126 	beq	r21,zero,3268 <_dtoa_r+0x440>
    3224:	05c00074 	movhi	r23,1
    3228:	bdc1a104 	addi	r23,r23,1668
    322c:	4805883a 	mov	r2,r9
    3230:	4007883a 	mov	r3,r8
    3234:	a980004c 	andi	r6,r21,1
    3238:	1009883a 	mov	r4,r2
    323c:	a82bd07a 	srai	r21,r21,1
    3240:	180b883a 	mov	r5,r3
    3244:	30000426 	beq	r6,zero,3258 <_dtoa_r+0x430>
    3248:	b9800017 	ldw	r6,0(r23)
    324c:	b9c00117 	ldw	r7,4(r23)
    3250:	84000044 	addi	r16,r16,1
    3254:	000c1000 	call	c100 <__muldf3>
    3258:	bdc00204 	addi	r23,r23,8
    325c:	a83ff51e 	bne	r21,zero,3234 <_gp+0xfffe8ec8>
    3260:	1013883a 	mov	r9,r2
    3264:	1811883a 	mov	r8,r3
    3268:	480d883a 	mov	r6,r9
    326c:	400f883a 	mov	r7,r8
    3270:	8809883a 	mov	r4,r17
    3274:	a00b883a 	mov	r5,r20
    3278:	000b4d80 	call	b4d8 <__divdf3>
    327c:	d8800f15 	stw	r2,60(sp)
    3280:	d8c01015 	stw	r3,64(sp)
    3284:	d8c00e17 	ldw	r3,56(sp)
    3288:	18000626 	beq	r3,zero,32a4 <_dtoa_r+0x47c>
    328c:	d9000f17 	ldw	r4,60(sp)
    3290:	d9401017 	ldw	r5,64(sp)
    3294:	000d883a 	mov	r6,zero
    3298:	01cffc34 	movhi	r7,16368
    329c:	000c00c0 	call	c00c <__ledf2>
    32a0:	10040b16 	blt	r2,zero,42d0 <_dtoa_r+0x14a8>
    32a4:	8009883a 	mov	r4,r16
    32a8:	000d2e80 	call	d2e8 <__floatsidf>
    32ac:	d9800f17 	ldw	r6,60(sp)
    32b0:	d9c01017 	ldw	r7,64(sp)
    32b4:	1009883a 	mov	r4,r2
    32b8:	180b883a 	mov	r5,r3
    32bc:	000c1000 	call	c100 <__muldf3>
    32c0:	000d883a 	mov	r6,zero
    32c4:	01d00734 	movhi	r7,16412
    32c8:	1009883a 	mov	r4,r2
    32cc:	180b883a 	mov	r5,r3
    32d0:	000ac2c0 	call	ac2c <__adddf3>
    32d4:	1021883a 	mov	r16,r2
    32d8:	d8800617 	ldw	r2,24(sp)
    32dc:	047f3034 	movhi	r17,64704
    32e0:	1c63883a 	add	r17,r3,r17
    32e4:	10031826 	beq	r2,zero,3f48 <_dtoa_r+0x1120>
    32e8:	d8c00517 	ldw	r3,20(sp)
    32ec:	db000617 	ldw	r12,24(sp)
    32f0:	d8c01315 	stw	r3,76(sp)
    32f4:	d9000b17 	ldw	r4,44(sp)
    32f8:	20038f26 	beq	r4,zero,4138 <_dtoa_r+0x1310>
    32fc:	60bfffc4 	addi	r2,r12,-1
    3300:	100490fa 	slli	r2,r2,3
    3304:	00c00074 	movhi	r3,1
    3308:	18c1ab04 	addi	r3,r3,1708
    330c:	1885883a 	add	r2,r3,r2
    3310:	11800017 	ldw	r6,0(r2)
    3314:	11c00117 	ldw	r7,4(r2)
    3318:	d8800717 	ldw	r2,28(sp)
    331c:	0009883a 	mov	r4,zero
    3320:	014ff834 	movhi	r5,16352
    3324:	db001615 	stw	r12,88(sp)
    3328:	15c00044 	addi	r23,r2,1
    332c:	000b4d80 	call	b4d8 <__divdf3>
    3330:	800d883a 	mov	r6,r16
    3334:	880f883a 	mov	r7,r17
    3338:	1009883a 	mov	r4,r2
    333c:	180b883a 	mov	r5,r3
    3340:	000c96c0 	call	c96c <__subdf3>
    3344:	d9401017 	ldw	r5,64(sp)
    3348:	d9000f17 	ldw	r4,60(sp)
    334c:	102b883a 	mov	r21,r2
    3350:	d8c01215 	stw	r3,72(sp)
    3354:	000d2680 	call	d268 <__fixdfsi>
    3358:	1009883a 	mov	r4,r2
    335c:	1029883a 	mov	r20,r2
    3360:	000d2e80 	call	d2e8 <__floatsidf>
    3364:	d9000f17 	ldw	r4,60(sp)
    3368:	d9401017 	ldw	r5,64(sp)
    336c:	100d883a 	mov	r6,r2
    3370:	180f883a 	mov	r7,r3
    3374:	000c96c0 	call	c96c <__subdf3>
    3378:	1823883a 	mov	r17,r3
    337c:	d8c00717 	ldw	r3,28(sp)
    3380:	d9401217 	ldw	r5,72(sp)
    3384:	a2000c04 	addi	r8,r20,48
    3388:	1021883a 	mov	r16,r2
    338c:	1a000005 	stb	r8,0(r3)
    3390:	800d883a 	mov	r6,r16
    3394:	880f883a 	mov	r7,r17
    3398:	a809883a 	mov	r4,r21
    339c:	4029883a 	mov	r20,r8
    33a0:	000bf300 	call	bf30 <__gedf2>
    33a4:	00841d16 	blt	zero,r2,441c <_dtoa_r+0x15f4>
    33a8:	800d883a 	mov	r6,r16
    33ac:	880f883a 	mov	r7,r17
    33b0:	0009883a 	mov	r4,zero
    33b4:	014ffc34 	movhi	r5,16368
    33b8:	000c96c0 	call	c96c <__subdf3>
    33bc:	d9401217 	ldw	r5,72(sp)
    33c0:	100d883a 	mov	r6,r2
    33c4:	180f883a 	mov	r7,r3
    33c8:	a809883a 	mov	r4,r21
    33cc:	000bf300 	call	bf30 <__gedf2>
    33d0:	db001617 	ldw	r12,88(sp)
    33d4:	00840e16 	blt	zero,r2,4410 <_dtoa_r+0x15e8>
    33d8:	00800044 	movi	r2,1
    33dc:	13006b0e 	bge	r2,r12,358c <_dtoa_r+0x764>
    33e0:	d9000717 	ldw	r4,28(sp)
    33e4:	dd800f15 	stw	r22,60(sp)
    33e8:	dcc01015 	stw	r19,64(sp)
    33ec:	2319883a 	add	r12,r4,r12
    33f0:	dcc01217 	ldw	r19,72(sp)
    33f4:	602d883a 	mov	r22,r12
    33f8:	dc801215 	stw	r18,72(sp)
    33fc:	b825883a 	mov	r18,r23
    3400:	00000906 	br	3428 <_dtoa_r+0x600>
    3404:	000c96c0 	call	c96c <__subdf3>
    3408:	a80d883a 	mov	r6,r21
    340c:	980f883a 	mov	r7,r19
    3410:	1009883a 	mov	r4,r2
    3414:	180b883a 	mov	r5,r3
    3418:	000c00c0 	call	c00c <__ledf2>
    341c:	1003e816 	blt	r2,zero,43c0 <_dtoa_r+0x1598>
    3420:	b825883a 	mov	r18,r23
    3424:	bd83e926 	beq	r23,r22,43cc <_dtoa_r+0x15a4>
    3428:	a809883a 	mov	r4,r21
    342c:	980b883a 	mov	r5,r19
    3430:	000d883a 	mov	r6,zero
    3434:	01d00934 	movhi	r7,16420
    3438:	000c1000 	call	c100 <__muldf3>
    343c:	000d883a 	mov	r6,zero
    3440:	01d00934 	movhi	r7,16420
    3444:	8009883a 	mov	r4,r16
    3448:	880b883a 	mov	r5,r17
    344c:	102b883a 	mov	r21,r2
    3450:	1827883a 	mov	r19,r3
    3454:	000c1000 	call	c100 <__muldf3>
    3458:	180b883a 	mov	r5,r3
    345c:	1009883a 	mov	r4,r2
    3460:	1821883a 	mov	r16,r3
    3464:	1023883a 	mov	r17,r2
    3468:	000d2680 	call	d268 <__fixdfsi>
    346c:	1009883a 	mov	r4,r2
    3470:	1029883a 	mov	r20,r2
    3474:	000d2e80 	call	d2e8 <__floatsidf>
    3478:	8809883a 	mov	r4,r17
    347c:	800b883a 	mov	r5,r16
    3480:	100d883a 	mov	r6,r2
    3484:	180f883a 	mov	r7,r3
    3488:	000c96c0 	call	c96c <__subdf3>
    348c:	a5000c04 	addi	r20,r20,48
    3490:	a80d883a 	mov	r6,r21
    3494:	980f883a 	mov	r7,r19
    3498:	1009883a 	mov	r4,r2
    349c:	180b883a 	mov	r5,r3
    34a0:	95000005 	stb	r20,0(r18)
    34a4:	1021883a 	mov	r16,r2
    34a8:	1823883a 	mov	r17,r3
    34ac:	000c00c0 	call	c00c <__ledf2>
    34b0:	bdc00044 	addi	r23,r23,1
    34b4:	800d883a 	mov	r6,r16
    34b8:	880f883a 	mov	r7,r17
    34bc:	0009883a 	mov	r4,zero
    34c0:	014ffc34 	movhi	r5,16368
    34c4:	103fcf0e 	bge	r2,zero,3404 <_gp+0xfffe9098>
    34c8:	d8c01317 	ldw	r3,76(sp)
    34cc:	d8c00515 	stw	r3,20(sp)
    34d0:	d9400917 	ldw	r5,36(sp)
    34d4:	e009883a 	mov	r4,fp
    34d8:	0005f640 	call	5f64 <_Bfree>
    34dc:	d9000517 	ldw	r4,20(sp)
    34e0:	d9802317 	ldw	r6,140(sp)
    34e4:	d9c02517 	ldw	r7,148(sp)
    34e8:	b8000005 	stb	zero,0(r23)
    34ec:	20800044 	addi	r2,r4,1
    34f0:	30800015 	stw	r2,0(r6)
    34f4:	3802aa26 	beq	r7,zero,3fa0 <_dtoa_r+0x1178>
    34f8:	3dc00015 	stw	r23,0(r7)
    34fc:	d8800717 	ldw	r2,28(sp)
    3500:	003e7906 	br	2ee8 <_gp+0xfffe8b7c>
    3504:	00800434 	movhi	r2,16
    3508:	10bfffc4 	addi	r2,r2,-1
    350c:	88a2703a 	and	r17,r17,r2
    3510:	883e851e 	bne	r17,zero,2f28 <_gp+0xfffe8bbc>
    3514:	00800074 	movhi	r2,1
    3518:	10818c04 	addi	r2,r2,1584
    351c:	003e8406 	br	2f30 <_gp+0xfffe8bc4>
    3520:	10c00204 	addi	r3,r2,8
    3524:	003e8706 	br	2f44 <_gp+0xfffe8bd8>
    3528:	01400434 	movhi	r5,16
    352c:	297fffc4 	addi	r5,r5,-1
    3530:	994a703a 	and	r5,r19,r5
    3534:	9009883a 	mov	r4,r18
    3538:	843f0044 	addi	r16,r16,-1023
    353c:	294ffc34 	orhi	r5,r5,16368
    3540:	dd800217 	ldw	r22,8(sp)
    3544:	d8001115 	stw	zero,68(sp)
    3548:	003ea506 	br	2fe0 <_gp+0xfffe8c74>
    354c:	00800074 	movhi	r2,1
    3550:	10818304 	addi	r2,r2,1548
    3554:	003e6406 	br	2ee8 <_gp+0xfffe8b7c>
    3558:	e0001115 	stw	zero,68(fp)
    355c:	000b883a 	mov	r5,zero
    3560:	e009883a 	mov	r4,fp
    3564:	0005ebc0 	call	5ebc <_Balloc>
    3568:	01bfffc4 	movi	r6,-1
    356c:	01c00044 	movi	r7,1
    3570:	d8800715 	stw	r2,28(sp)
    3574:	d9800c15 	stw	r6,48(sp)
    3578:	e0801015 	stw	r2,64(fp)
    357c:	d8000315 	stw	zero,12(sp)
    3580:	d9c00b15 	stw	r7,44(sp)
    3584:	d9800615 	stw	r6,24(sp)
    3588:	d8002215 	stw	zero,136(sp)
    358c:	d8800117 	ldw	r2,4(sp)
    3590:	10008916 	blt	r2,zero,37b8 <_dtoa_r+0x990>
    3594:	d9000517 	ldw	r4,20(sp)
    3598:	00c00384 	movi	r3,14
    359c:	19008616 	blt	r3,r4,37b8 <_dtoa_r+0x990>
    35a0:	200490fa 	slli	r2,r4,3
    35a4:	00c00074 	movhi	r3,1
    35a8:	d9802217 	ldw	r6,136(sp)
    35ac:	18c1ab04 	addi	r3,r3,1708
    35b0:	1885883a 	add	r2,r3,r2
    35b4:	14000017 	ldw	r16,0(r2)
    35b8:	14400117 	ldw	r17,4(r2)
    35bc:	30016316 	blt	r6,zero,3b4c <_dtoa_r+0xd24>
    35c0:	800d883a 	mov	r6,r16
    35c4:	880f883a 	mov	r7,r17
    35c8:	9009883a 	mov	r4,r18
    35cc:	980b883a 	mov	r5,r19
    35d0:	000b4d80 	call	b4d8 <__divdf3>
    35d4:	180b883a 	mov	r5,r3
    35d8:	1009883a 	mov	r4,r2
    35dc:	000d2680 	call	d268 <__fixdfsi>
    35e0:	1009883a 	mov	r4,r2
    35e4:	102b883a 	mov	r21,r2
    35e8:	000d2e80 	call	d2e8 <__floatsidf>
    35ec:	800d883a 	mov	r6,r16
    35f0:	880f883a 	mov	r7,r17
    35f4:	1009883a 	mov	r4,r2
    35f8:	180b883a 	mov	r5,r3
    35fc:	000c1000 	call	c100 <__muldf3>
    3600:	100d883a 	mov	r6,r2
    3604:	180f883a 	mov	r7,r3
    3608:	9009883a 	mov	r4,r18
    360c:	980b883a 	mov	r5,r19
    3610:	000c96c0 	call	c96c <__subdf3>
    3614:	d9c00717 	ldw	r7,28(sp)
    3618:	1009883a 	mov	r4,r2
    361c:	a8800c04 	addi	r2,r21,48
    3620:	38800005 	stb	r2,0(r7)
    3624:	3dc00044 	addi	r23,r7,1
    3628:	d9c00617 	ldw	r7,24(sp)
    362c:	01800044 	movi	r6,1
    3630:	180b883a 	mov	r5,r3
    3634:	2005883a 	mov	r2,r4
    3638:	39803826 	beq	r7,r6,371c <_dtoa_r+0x8f4>
    363c:	000d883a 	mov	r6,zero
    3640:	01d00934 	movhi	r7,16420
    3644:	000c1000 	call	c100 <__muldf3>
    3648:	000d883a 	mov	r6,zero
    364c:	000f883a 	mov	r7,zero
    3650:	1009883a 	mov	r4,r2
    3654:	180b883a 	mov	r5,r3
    3658:	1025883a 	mov	r18,r2
    365c:	1827883a 	mov	r19,r3
    3660:	000bea80 	call	bea8 <__eqdf2>
    3664:	103f9a26 	beq	r2,zero,34d0 <_gp+0xfffe9164>
    3668:	d9c00617 	ldw	r7,24(sp)
    366c:	d8c00717 	ldw	r3,28(sp)
    3670:	b829883a 	mov	r20,r23
    3674:	38bfffc4 	addi	r2,r7,-1
    3678:	18ad883a 	add	r22,r3,r2
    367c:	00000a06 	br	36a8 <_dtoa_r+0x880>
    3680:	000c1000 	call	c100 <__muldf3>
    3684:	000d883a 	mov	r6,zero
    3688:	000f883a 	mov	r7,zero
    368c:	1009883a 	mov	r4,r2
    3690:	180b883a 	mov	r5,r3
    3694:	1025883a 	mov	r18,r2
    3698:	1827883a 	mov	r19,r3
    369c:	b829883a 	mov	r20,r23
    36a0:	000bea80 	call	bea8 <__eqdf2>
    36a4:	103f8a26 	beq	r2,zero,34d0 <_gp+0xfffe9164>
    36a8:	800d883a 	mov	r6,r16
    36ac:	880f883a 	mov	r7,r17
    36b0:	9009883a 	mov	r4,r18
    36b4:	980b883a 	mov	r5,r19
    36b8:	000b4d80 	call	b4d8 <__divdf3>
    36bc:	180b883a 	mov	r5,r3
    36c0:	1009883a 	mov	r4,r2
    36c4:	000d2680 	call	d268 <__fixdfsi>
    36c8:	1009883a 	mov	r4,r2
    36cc:	102b883a 	mov	r21,r2
    36d0:	000d2e80 	call	d2e8 <__floatsidf>
    36d4:	800d883a 	mov	r6,r16
    36d8:	880f883a 	mov	r7,r17
    36dc:	1009883a 	mov	r4,r2
    36e0:	180b883a 	mov	r5,r3
    36e4:	000c1000 	call	c100 <__muldf3>
    36e8:	100d883a 	mov	r6,r2
    36ec:	180f883a 	mov	r7,r3
    36f0:	9009883a 	mov	r4,r18
    36f4:	980b883a 	mov	r5,r19
    36f8:	000c96c0 	call	c96c <__subdf3>
    36fc:	aa000c04 	addi	r8,r21,48
    3700:	a2000005 	stb	r8,0(r20)
    3704:	000d883a 	mov	r6,zero
    3708:	01d00934 	movhi	r7,16420
    370c:	1009883a 	mov	r4,r2
    3710:	180b883a 	mov	r5,r3
    3714:	a5c00044 	addi	r23,r20,1
    3718:	b53fd91e 	bne	r22,r20,3680 <_gp+0xfffe9314>
    371c:	100d883a 	mov	r6,r2
    3720:	180f883a 	mov	r7,r3
    3724:	1009883a 	mov	r4,r2
    3728:	180b883a 	mov	r5,r3
    372c:	000ac2c0 	call	ac2c <__adddf3>
    3730:	100d883a 	mov	r6,r2
    3734:	180f883a 	mov	r7,r3
    3738:	8009883a 	mov	r4,r16
    373c:	880b883a 	mov	r5,r17
    3740:	1027883a 	mov	r19,r2
    3744:	1825883a 	mov	r18,r3
    3748:	000c00c0 	call	c00c <__ledf2>
    374c:	10000816 	blt	r2,zero,3770 <_dtoa_r+0x948>
    3750:	980d883a 	mov	r6,r19
    3754:	900f883a 	mov	r7,r18
    3758:	8009883a 	mov	r4,r16
    375c:	880b883a 	mov	r5,r17
    3760:	000bea80 	call	bea8 <__eqdf2>
    3764:	103f5a1e 	bne	r2,zero,34d0 <_gp+0xfffe9164>
    3768:	ad40004c 	andi	r21,r21,1
    376c:	a83f5826 	beq	r21,zero,34d0 <_gp+0xfffe9164>
    3770:	bd3fffc3 	ldbu	r20,-1(r23)
    3774:	b8bfffc4 	addi	r2,r23,-1
    3778:	1007883a 	mov	r3,r2
    377c:	01400e44 	movi	r5,57
    3780:	d9800717 	ldw	r6,28(sp)
    3784:	00000506 	br	379c <_dtoa_r+0x974>
    3788:	18ffffc4 	addi	r3,r3,-1
    378c:	11824726 	beq	r2,r6,40ac <_dtoa_r+0x1284>
    3790:	1d000003 	ldbu	r20,0(r3)
    3794:	102f883a 	mov	r23,r2
    3798:	10bfffc4 	addi	r2,r2,-1
    379c:	a1003fcc 	andi	r4,r20,255
    37a0:	2100201c 	xori	r4,r4,128
    37a4:	213fe004 	addi	r4,r4,-128
    37a8:	217ff726 	beq	r4,r5,3788 <_gp+0xfffe941c>
    37ac:	a2000044 	addi	r8,r20,1
    37b0:	12000005 	stb	r8,0(r2)
    37b4:	003f4606 	br	34d0 <_gp+0xfffe9164>
    37b8:	d9000b17 	ldw	r4,44(sp)
    37bc:	2000c826 	beq	r4,zero,3ae0 <_dtoa_r+0xcb8>
    37c0:	d9800317 	ldw	r6,12(sp)
    37c4:	00c00044 	movi	r3,1
    37c8:	1980f90e 	bge	r3,r6,3bb0 <_dtoa_r+0xd88>
    37cc:	d8800617 	ldw	r2,24(sp)
    37d0:	d8c00a17 	ldw	r3,40(sp)
    37d4:	157fffc4 	addi	r21,r2,-1
    37d8:	1d41f316 	blt	r3,r21,3fa8 <_dtoa_r+0x1180>
    37dc:	1d6bc83a 	sub	r21,r3,r21
    37e0:	d9c00617 	ldw	r7,24(sp)
    37e4:	3802aa16 	blt	r7,zero,4290 <_dtoa_r+0x1468>
    37e8:	dd000817 	ldw	r20,32(sp)
    37ec:	d8800617 	ldw	r2,24(sp)
    37f0:	d8c00817 	ldw	r3,32(sp)
    37f4:	01400044 	movi	r5,1
    37f8:	e009883a 	mov	r4,fp
    37fc:	1887883a 	add	r3,r3,r2
    3800:	d8c00815 	stw	r3,32(sp)
    3804:	b0ad883a 	add	r22,r22,r2
    3808:	00062f00 	call	62f0 <__i2b>
    380c:	1023883a 	mov	r17,r2
    3810:	a0000826 	beq	r20,zero,3834 <_dtoa_r+0xa0c>
    3814:	0580070e 	bge	zero,r22,3834 <_dtoa_r+0xa0c>
    3818:	a005883a 	mov	r2,r20
    381c:	b500b916 	blt	r22,r20,3b04 <_dtoa_r+0xcdc>
    3820:	d9000817 	ldw	r4,32(sp)
    3824:	a0a9c83a 	sub	r20,r20,r2
    3828:	b0adc83a 	sub	r22,r22,r2
    382c:	2089c83a 	sub	r4,r4,r2
    3830:	d9000815 	stw	r4,32(sp)
    3834:	d9800a17 	ldw	r6,40(sp)
    3838:	0181810e 	bge	zero,r6,3e40 <_dtoa_r+0x1018>
    383c:	d9c00b17 	ldw	r7,44(sp)
    3840:	3800b326 	beq	r7,zero,3b10 <_dtoa_r+0xce8>
    3844:	a800b226 	beq	r21,zero,3b10 <_dtoa_r+0xce8>
    3848:	880b883a 	mov	r5,r17
    384c:	a80d883a 	mov	r6,r21
    3850:	e009883a 	mov	r4,fp
    3854:	00065b80 	call	65b8 <__pow5mult>
    3858:	d9800917 	ldw	r6,36(sp)
    385c:	100b883a 	mov	r5,r2
    3860:	e009883a 	mov	r4,fp
    3864:	1023883a 	mov	r17,r2
    3868:	000632c0 	call	632c <__multiply>
    386c:	1021883a 	mov	r16,r2
    3870:	d8800a17 	ldw	r2,40(sp)
    3874:	d9400917 	ldw	r5,36(sp)
    3878:	e009883a 	mov	r4,fp
    387c:	1545c83a 	sub	r2,r2,r21
    3880:	d8800a15 	stw	r2,40(sp)
    3884:	0005f640 	call	5f64 <_Bfree>
    3888:	d8c00a17 	ldw	r3,40(sp)
    388c:	18009f1e 	bne	r3,zero,3b0c <_dtoa_r+0xce4>
    3890:	05c00044 	movi	r23,1
    3894:	e009883a 	mov	r4,fp
    3898:	b80b883a 	mov	r5,r23
    389c:	00062f00 	call	62f0 <__i2b>
    38a0:	d9000d17 	ldw	r4,52(sp)
    38a4:	102b883a 	mov	r21,r2
    38a8:	2000ce26 	beq	r4,zero,3be4 <_dtoa_r+0xdbc>
    38ac:	200d883a 	mov	r6,r4
    38b0:	100b883a 	mov	r5,r2
    38b4:	e009883a 	mov	r4,fp
    38b8:	00065b80 	call	65b8 <__pow5mult>
    38bc:	d9800317 	ldw	r6,12(sp)
    38c0:	102b883a 	mov	r21,r2
    38c4:	b981810e 	bge	r23,r6,3ecc <_dtoa_r+0x10a4>
    38c8:	0027883a 	mov	r19,zero
    38cc:	a8800417 	ldw	r2,16(r21)
    38d0:	05c00804 	movi	r23,32
    38d4:	10800104 	addi	r2,r2,4
    38d8:	1085883a 	add	r2,r2,r2
    38dc:	1085883a 	add	r2,r2,r2
    38e0:	a885883a 	add	r2,r21,r2
    38e4:	11000017 	ldw	r4,0(r2)
    38e8:	00061d80 	call	61d8 <__hi0bits>
    38ec:	b885c83a 	sub	r2,r23,r2
    38f0:	1585883a 	add	r2,r2,r22
    38f4:	108007cc 	andi	r2,r2,31
    38f8:	1000b326 	beq	r2,zero,3bc8 <_dtoa_r+0xda0>
    38fc:	00c00804 	movi	r3,32
    3900:	1887c83a 	sub	r3,r3,r2
    3904:	01000104 	movi	r4,4
    3908:	20c2cd0e 	bge	r4,r3,4440 <_dtoa_r+0x1618>
    390c:	00c00704 	movi	r3,28
    3910:	1885c83a 	sub	r2,r3,r2
    3914:	d8c00817 	ldw	r3,32(sp)
    3918:	a0a9883a 	add	r20,r20,r2
    391c:	b0ad883a 	add	r22,r22,r2
    3920:	1887883a 	add	r3,r3,r2
    3924:	d8c00815 	stw	r3,32(sp)
    3928:	d9800817 	ldw	r6,32(sp)
    392c:	0180040e 	bge	zero,r6,3940 <_dtoa_r+0xb18>
    3930:	800b883a 	mov	r5,r16
    3934:	e009883a 	mov	r4,fp
    3938:	00066f80 	call	66f8 <__lshift>
    393c:	1021883a 	mov	r16,r2
    3940:	0580050e 	bge	zero,r22,3958 <_dtoa_r+0xb30>
    3944:	a80b883a 	mov	r5,r21
    3948:	b00d883a 	mov	r6,r22
    394c:	e009883a 	mov	r4,fp
    3950:	00066f80 	call	66f8 <__lshift>
    3954:	102b883a 	mov	r21,r2
    3958:	d9c00e17 	ldw	r7,56(sp)
    395c:	3801211e 	bne	r7,zero,3de4 <_dtoa_r+0xfbc>
    3960:	d9800617 	ldw	r6,24(sp)
    3964:	0181380e 	bge	zero,r6,3e48 <_dtoa_r+0x1020>
    3968:	d8c00b17 	ldw	r3,44(sp)
    396c:	1800ab1e 	bne	r3,zero,3c1c <_dtoa_r+0xdf4>
    3970:	dc800717 	ldw	r18,28(sp)
    3974:	dcc00617 	ldw	r19,24(sp)
    3978:	9029883a 	mov	r20,r18
    397c:	00000206 	br	3988 <_dtoa_r+0xb60>
    3980:	0005f8c0 	call	5f8c <__multadd>
    3984:	1021883a 	mov	r16,r2
    3988:	a80b883a 	mov	r5,r21
    398c:	8009883a 	mov	r4,r16
    3990:	0002c000 	call	2c00 <quorem>
    3994:	10800c04 	addi	r2,r2,48
    3998:	90800005 	stb	r2,0(r18)
    399c:	94800044 	addi	r18,r18,1
    39a0:	9507c83a 	sub	r3,r18,r20
    39a4:	000f883a 	mov	r7,zero
    39a8:	01800284 	movi	r6,10
    39ac:	800b883a 	mov	r5,r16
    39b0:	e009883a 	mov	r4,fp
    39b4:	1cfff216 	blt	r3,r19,3980 <_gp+0xfffe9614>
    39b8:	1011883a 	mov	r8,r2
    39bc:	d8800617 	ldw	r2,24(sp)
    39c0:	0082370e 	bge	zero,r2,42a0 <_dtoa_r+0x1478>
    39c4:	d9000717 	ldw	r4,28(sp)
    39c8:	0025883a 	mov	r18,zero
    39cc:	20af883a 	add	r23,r4,r2
    39d0:	01800044 	movi	r6,1
    39d4:	800b883a 	mov	r5,r16
    39d8:	e009883a 	mov	r4,fp
    39dc:	da001715 	stw	r8,92(sp)
    39e0:	00066f80 	call	66f8 <__lshift>
    39e4:	a80b883a 	mov	r5,r21
    39e8:	1009883a 	mov	r4,r2
    39ec:	d8800915 	stw	r2,36(sp)
    39f0:	00068400 	call	6840 <__mcmp>
    39f4:	da001717 	ldw	r8,92(sp)
    39f8:	0081800e 	bge	zero,r2,3ffc <_dtoa_r+0x11d4>
    39fc:	b93fffc3 	ldbu	r4,-1(r23)
    3a00:	b8bfffc4 	addi	r2,r23,-1
    3a04:	1007883a 	mov	r3,r2
    3a08:	01800e44 	movi	r6,57
    3a0c:	d9c00717 	ldw	r7,28(sp)
    3a10:	00000506 	br	3a28 <_dtoa_r+0xc00>
    3a14:	18ffffc4 	addi	r3,r3,-1
    3a18:	11c12326 	beq	r2,r7,3ea8 <_dtoa_r+0x1080>
    3a1c:	19000003 	ldbu	r4,0(r3)
    3a20:	102f883a 	mov	r23,r2
    3a24:	10bfffc4 	addi	r2,r2,-1
    3a28:	21403fcc 	andi	r5,r4,255
    3a2c:	2940201c 	xori	r5,r5,128
    3a30:	297fe004 	addi	r5,r5,-128
    3a34:	29bff726 	beq	r5,r6,3a14 <_gp+0xfffe96a8>
    3a38:	21000044 	addi	r4,r4,1
    3a3c:	11000005 	stb	r4,0(r2)
    3a40:	a80b883a 	mov	r5,r21
    3a44:	e009883a 	mov	r4,fp
    3a48:	0005f640 	call	5f64 <_Bfree>
    3a4c:	883ea026 	beq	r17,zero,34d0 <_gp+0xfffe9164>
    3a50:	90000426 	beq	r18,zero,3a64 <_dtoa_r+0xc3c>
    3a54:	94400326 	beq	r18,r17,3a64 <_dtoa_r+0xc3c>
    3a58:	900b883a 	mov	r5,r18
    3a5c:	e009883a 	mov	r4,fp
    3a60:	0005f640 	call	5f64 <_Bfree>
    3a64:	880b883a 	mov	r5,r17
    3a68:	e009883a 	mov	r4,fp
    3a6c:	0005f640 	call	5f64 <_Bfree>
    3a70:	003e9706 	br	34d0 <_gp+0xfffe9164>
    3a74:	01800044 	movi	r6,1
    3a78:	d9800e15 	stw	r6,56(sp)
    3a7c:	003d9606 	br	30d8 <_gp+0xfffe8d6c>
    3a80:	d8800817 	ldw	r2,32(sp)
    3a84:	d8c00517 	ldw	r3,20(sp)
    3a88:	d8000d15 	stw	zero,52(sp)
    3a8c:	10c5c83a 	sub	r2,r2,r3
    3a90:	00c9c83a 	sub	r4,zero,r3
    3a94:	d8800815 	stw	r2,32(sp)
    3a98:	d9000a15 	stw	r4,40(sp)
    3a9c:	003d9706 	br	30fc <_gp+0xfffe8d90>
    3aa0:	05adc83a 	sub	r22,zero,r22
    3aa4:	dd800815 	stw	r22,32(sp)
    3aa8:	002d883a 	mov	r22,zero
    3aac:	003d8e06 	br	30e8 <_gp+0xfffe8d7c>
    3ab0:	d9000517 	ldw	r4,20(sp)
    3ab4:	000d2e80 	call	d2e8 <__floatsidf>
    3ab8:	100d883a 	mov	r6,r2
    3abc:	180f883a 	mov	r7,r3
    3ac0:	a009883a 	mov	r4,r20
    3ac4:	880b883a 	mov	r5,r17
    3ac8:	000bea80 	call	bea8 <__eqdf2>
    3acc:	103d7126 	beq	r2,zero,3094 <_gp+0xfffe8d28>
    3ad0:	d9c00517 	ldw	r7,20(sp)
    3ad4:	39ffffc4 	addi	r7,r7,-1
    3ad8:	d9c00515 	stw	r7,20(sp)
    3adc:	003d6d06 	br	3094 <_gp+0xfffe8d28>
    3ae0:	dd400a17 	ldw	r21,40(sp)
    3ae4:	dd000817 	ldw	r20,32(sp)
    3ae8:	0023883a 	mov	r17,zero
    3aec:	003f4806 	br	3810 <_gp+0xfffe94a4>
    3af0:	10e3c83a 	sub	r17,r2,r3
    3af4:	9448983a 	sll	r4,r18,r17
    3af8:	003d3206 	br	2fc4 <_gp+0xfffe8c58>
    3afc:	d8000e15 	stw	zero,56(sp)
    3b00:	003d7506 	br	30d8 <_gp+0xfffe8d6c>
    3b04:	b005883a 	mov	r2,r22
    3b08:	003f4506 	br	3820 <_gp+0xfffe94b4>
    3b0c:	dc000915 	stw	r16,36(sp)
    3b10:	d9800a17 	ldw	r6,40(sp)
    3b14:	d9400917 	ldw	r5,36(sp)
    3b18:	e009883a 	mov	r4,fp
    3b1c:	00065b80 	call	65b8 <__pow5mult>
    3b20:	1021883a 	mov	r16,r2
    3b24:	003f5a06 	br	3890 <_gp+0xfffe9524>
    3b28:	01c00044 	movi	r7,1
    3b2c:	d9c00b15 	stw	r7,44(sp)
    3b30:	d8802217 	ldw	r2,136(sp)
    3b34:	0081280e 	bge	zero,r2,3fd8 <_dtoa_r+0x11b0>
    3b38:	100d883a 	mov	r6,r2
    3b3c:	1021883a 	mov	r16,r2
    3b40:	d8800c15 	stw	r2,48(sp)
    3b44:	d8800615 	stw	r2,24(sp)
    3b48:	003d8806 	br	316c <_gp+0xfffe8e00>
    3b4c:	d8800617 	ldw	r2,24(sp)
    3b50:	00be9b16 	blt	zero,r2,35c0 <_gp+0xfffe9254>
    3b54:	10010f1e 	bne	r2,zero,3f94 <_dtoa_r+0x116c>
    3b58:	880b883a 	mov	r5,r17
    3b5c:	000d883a 	mov	r6,zero
    3b60:	01d00534 	movhi	r7,16404
    3b64:	8009883a 	mov	r4,r16
    3b68:	000c1000 	call	c100 <__muldf3>
    3b6c:	900d883a 	mov	r6,r18
    3b70:	980f883a 	mov	r7,r19
    3b74:	1009883a 	mov	r4,r2
    3b78:	180b883a 	mov	r5,r3
    3b7c:	000bf300 	call	bf30 <__gedf2>
    3b80:	002b883a 	mov	r21,zero
    3b84:	0023883a 	mov	r17,zero
    3b88:	1000bf16 	blt	r2,zero,3e88 <_dtoa_r+0x1060>
    3b8c:	d9802217 	ldw	r6,136(sp)
    3b90:	ddc00717 	ldw	r23,28(sp)
    3b94:	018c303a 	nor	r6,zero,r6
    3b98:	d9800515 	stw	r6,20(sp)
    3b9c:	a80b883a 	mov	r5,r21
    3ba0:	e009883a 	mov	r4,fp
    3ba4:	0005f640 	call	5f64 <_Bfree>
    3ba8:	883e4926 	beq	r17,zero,34d0 <_gp+0xfffe9164>
    3bac:	003fad06 	br	3a64 <_gp+0xfffe96f8>
    3bb0:	d9c01117 	ldw	r7,68(sp)
    3bb4:	3801bc26 	beq	r7,zero,42a8 <_dtoa_r+0x1480>
    3bb8:	10810cc4 	addi	r2,r2,1075
    3bbc:	dd400a17 	ldw	r21,40(sp)
    3bc0:	dd000817 	ldw	r20,32(sp)
    3bc4:	003f0a06 	br	37f0 <_gp+0xfffe9484>
    3bc8:	00800704 	movi	r2,28
    3bcc:	d9000817 	ldw	r4,32(sp)
    3bd0:	a0a9883a 	add	r20,r20,r2
    3bd4:	b0ad883a 	add	r22,r22,r2
    3bd8:	2089883a 	add	r4,r4,r2
    3bdc:	d9000815 	stw	r4,32(sp)
    3be0:	003f5106 	br	3928 <_gp+0xfffe95bc>
    3be4:	d8c00317 	ldw	r3,12(sp)
    3be8:	b8c1fc0e 	bge	r23,r3,43dc <_dtoa_r+0x15b4>
    3bec:	0027883a 	mov	r19,zero
    3bf0:	b805883a 	mov	r2,r23
    3bf4:	003f3e06 	br	38f0 <_gp+0xfffe9584>
    3bf8:	880b883a 	mov	r5,r17
    3bfc:	e009883a 	mov	r4,fp
    3c00:	000f883a 	mov	r7,zero
    3c04:	01800284 	movi	r6,10
    3c08:	0005f8c0 	call	5f8c <__multadd>
    3c0c:	d9000c17 	ldw	r4,48(sp)
    3c10:	1023883a 	mov	r17,r2
    3c14:	0102040e 	bge	zero,r4,4428 <_dtoa_r+0x1600>
    3c18:	d9000615 	stw	r4,24(sp)
    3c1c:	0500050e 	bge	zero,r20,3c34 <_dtoa_r+0xe0c>
    3c20:	880b883a 	mov	r5,r17
    3c24:	a00d883a 	mov	r6,r20
    3c28:	e009883a 	mov	r4,fp
    3c2c:	00066f80 	call	66f8 <__lshift>
    3c30:	1023883a 	mov	r17,r2
    3c34:	9801241e 	bne	r19,zero,40c8 <_dtoa_r+0x12a0>
    3c38:	8829883a 	mov	r20,r17
    3c3c:	d9000617 	ldw	r4,24(sp)
    3c40:	dcc00717 	ldw	r19,28(sp)
    3c44:	9480004c 	andi	r18,r18,1
    3c48:	20bfffc4 	addi	r2,r4,-1
    3c4c:	9885883a 	add	r2,r19,r2
    3c50:	d8800415 	stw	r2,16(sp)
    3c54:	dc800615 	stw	r18,24(sp)
    3c58:	a80b883a 	mov	r5,r21
    3c5c:	8009883a 	mov	r4,r16
    3c60:	0002c000 	call	2c00 <quorem>
    3c64:	880b883a 	mov	r5,r17
    3c68:	8009883a 	mov	r4,r16
    3c6c:	102f883a 	mov	r23,r2
    3c70:	00068400 	call	6840 <__mcmp>
    3c74:	a80b883a 	mov	r5,r21
    3c78:	a00d883a 	mov	r6,r20
    3c7c:	e009883a 	mov	r4,fp
    3c80:	102d883a 	mov	r22,r2
    3c84:	00068a00 	call	68a0 <__mdiff>
    3c88:	1007883a 	mov	r3,r2
    3c8c:	10800317 	ldw	r2,12(r2)
    3c90:	bc800c04 	addi	r18,r23,48
    3c94:	180b883a 	mov	r5,r3
    3c98:	10004e1e 	bne	r2,zero,3dd4 <_dtoa_r+0xfac>
    3c9c:	8009883a 	mov	r4,r16
    3ca0:	d8c01615 	stw	r3,88(sp)
    3ca4:	00068400 	call	6840 <__mcmp>
    3ca8:	d8c01617 	ldw	r3,88(sp)
    3cac:	e009883a 	mov	r4,fp
    3cb0:	d8801615 	stw	r2,88(sp)
    3cb4:	180b883a 	mov	r5,r3
    3cb8:	0005f640 	call	5f64 <_Bfree>
    3cbc:	d8801617 	ldw	r2,88(sp)
    3cc0:	1000041e 	bne	r2,zero,3cd4 <_dtoa_r+0xeac>
    3cc4:	d9800317 	ldw	r6,12(sp)
    3cc8:	3000021e 	bne	r6,zero,3cd4 <_dtoa_r+0xeac>
    3ccc:	d8c00617 	ldw	r3,24(sp)
    3cd0:	18003726 	beq	r3,zero,3db0 <_dtoa_r+0xf88>
    3cd4:	b0002016 	blt	r22,zero,3d58 <_dtoa_r+0xf30>
    3cd8:	b000041e 	bne	r22,zero,3cec <_dtoa_r+0xec4>
    3cdc:	d9000317 	ldw	r4,12(sp)
    3ce0:	2000021e 	bne	r4,zero,3cec <_dtoa_r+0xec4>
    3ce4:	d8c00617 	ldw	r3,24(sp)
    3ce8:	18001b26 	beq	r3,zero,3d58 <_dtoa_r+0xf30>
    3cec:	00810716 	blt	zero,r2,410c <_dtoa_r+0x12e4>
    3cf0:	d8c00417 	ldw	r3,16(sp)
    3cf4:	9d800044 	addi	r22,r19,1
    3cf8:	9c800005 	stb	r18,0(r19)
    3cfc:	b02f883a 	mov	r23,r22
    3d00:	98c10626 	beq	r19,r3,411c <_dtoa_r+0x12f4>
    3d04:	800b883a 	mov	r5,r16
    3d08:	000f883a 	mov	r7,zero
    3d0c:	01800284 	movi	r6,10
    3d10:	e009883a 	mov	r4,fp
    3d14:	0005f8c0 	call	5f8c <__multadd>
    3d18:	1021883a 	mov	r16,r2
    3d1c:	000f883a 	mov	r7,zero
    3d20:	01800284 	movi	r6,10
    3d24:	880b883a 	mov	r5,r17
    3d28:	e009883a 	mov	r4,fp
    3d2c:	8d002526 	beq	r17,r20,3dc4 <_dtoa_r+0xf9c>
    3d30:	0005f8c0 	call	5f8c <__multadd>
    3d34:	a00b883a 	mov	r5,r20
    3d38:	000f883a 	mov	r7,zero
    3d3c:	01800284 	movi	r6,10
    3d40:	e009883a 	mov	r4,fp
    3d44:	1023883a 	mov	r17,r2
    3d48:	0005f8c0 	call	5f8c <__multadd>
    3d4c:	1029883a 	mov	r20,r2
    3d50:	b027883a 	mov	r19,r22
    3d54:	003fc006 	br	3c58 <_gp+0xfffe98ec>
    3d58:	9011883a 	mov	r8,r18
    3d5c:	00800e0e 	bge	zero,r2,3d98 <_dtoa_r+0xf70>
    3d60:	800b883a 	mov	r5,r16
    3d64:	01800044 	movi	r6,1
    3d68:	e009883a 	mov	r4,fp
    3d6c:	da001715 	stw	r8,92(sp)
    3d70:	00066f80 	call	66f8 <__lshift>
    3d74:	a80b883a 	mov	r5,r21
    3d78:	1009883a 	mov	r4,r2
    3d7c:	1021883a 	mov	r16,r2
    3d80:	00068400 	call	6840 <__mcmp>
    3d84:	da001717 	ldw	r8,92(sp)
    3d88:	0081960e 	bge	zero,r2,43e4 <_dtoa_r+0x15bc>
    3d8c:	00800e44 	movi	r2,57
    3d90:	40817026 	beq	r8,r2,4354 <_dtoa_r+0x152c>
    3d94:	ba000c44 	addi	r8,r23,49
    3d98:	8825883a 	mov	r18,r17
    3d9c:	9dc00044 	addi	r23,r19,1
    3da0:	9a000005 	stb	r8,0(r19)
    3da4:	a023883a 	mov	r17,r20
    3da8:	dc000915 	stw	r16,36(sp)
    3dac:	003f2406 	br	3a40 <_gp+0xfffe96d4>
    3db0:	00800e44 	movi	r2,57
    3db4:	9011883a 	mov	r8,r18
    3db8:	90816626 	beq	r18,r2,4354 <_dtoa_r+0x152c>
    3dbc:	05bff516 	blt	zero,r22,3d94 <_gp+0xfffe9a28>
    3dc0:	003ff506 	br	3d98 <_gp+0xfffe9a2c>
    3dc4:	0005f8c0 	call	5f8c <__multadd>
    3dc8:	1023883a 	mov	r17,r2
    3dcc:	1029883a 	mov	r20,r2
    3dd0:	003fdf06 	br	3d50 <_gp+0xfffe99e4>
    3dd4:	e009883a 	mov	r4,fp
    3dd8:	0005f640 	call	5f64 <_Bfree>
    3ddc:	00800044 	movi	r2,1
    3de0:	003fbc06 	br	3cd4 <_gp+0xfffe9968>
    3de4:	a80b883a 	mov	r5,r21
    3de8:	8009883a 	mov	r4,r16
    3dec:	00068400 	call	6840 <__mcmp>
    3df0:	103edb0e 	bge	r2,zero,3960 <_gp+0xfffe95f4>
    3df4:	800b883a 	mov	r5,r16
    3df8:	000f883a 	mov	r7,zero
    3dfc:	01800284 	movi	r6,10
    3e00:	e009883a 	mov	r4,fp
    3e04:	0005f8c0 	call	5f8c <__multadd>
    3e08:	1021883a 	mov	r16,r2
    3e0c:	d8800517 	ldw	r2,20(sp)
    3e10:	d8c00b17 	ldw	r3,44(sp)
    3e14:	10bfffc4 	addi	r2,r2,-1
    3e18:	d8800515 	stw	r2,20(sp)
    3e1c:	183f761e 	bne	r3,zero,3bf8 <_gp+0xfffe988c>
    3e20:	d9000c17 	ldw	r4,48(sp)
    3e24:	0101730e 	bge	zero,r4,43f4 <_dtoa_r+0x15cc>
    3e28:	d9000615 	stw	r4,24(sp)
    3e2c:	003ed006 	br	3970 <_gp+0xfffe9604>
    3e30:	00800084 	movi	r2,2
    3e34:	3081861e 	bne	r6,r2,4450 <_dtoa_r+0x1628>
    3e38:	d8000b15 	stw	zero,44(sp)
    3e3c:	003f3c06 	br	3b30 <_gp+0xfffe97c4>
    3e40:	dc000917 	ldw	r16,36(sp)
    3e44:	003e9206 	br	3890 <_gp+0xfffe9524>
    3e48:	d9c00317 	ldw	r7,12(sp)
    3e4c:	00800084 	movi	r2,2
    3e50:	11fec50e 	bge	r2,r7,3968 <_gp+0xfffe95fc>
    3e54:	d9000617 	ldw	r4,24(sp)
    3e58:	20013c1e 	bne	r4,zero,434c <_dtoa_r+0x1524>
    3e5c:	a80b883a 	mov	r5,r21
    3e60:	000f883a 	mov	r7,zero
    3e64:	01800144 	movi	r6,5
    3e68:	e009883a 	mov	r4,fp
    3e6c:	0005f8c0 	call	5f8c <__multadd>
    3e70:	100b883a 	mov	r5,r2
    3e74:	8009883a 	mov	r4,r16
    3e78:	102b883a 	mov	r21,r2
    3e7c:	00068400 	call	6840 <__mcmp>
    3e80:	dc000915 	stw	r16,36(sp)
    3e84:	00bf410e 	bge	zero,r2,3b8c <_gp+0xfffe9820>
    3e88:	d9c00717 	ldw	r7,28(sp)
    3e8c:	00800c44 	movi	r2,49
    3e90:	38800005 	stb	r2,0(r7)
    3e94:	d8800517 	ldw	r2,20(sp)
    3e98:	3dc00044 	addi	r23,r7,1
    3e9c:	10800044 	addi	r2,r2,1
    3ea0:	d8800515 	stw	r2,20(sp)
    3ea4:	003f3d06 	br	3b9c <_gp+0xfffe9830>
    3ea8:	d9800517 	ldw	r6,20(sp)
    3eac:	d9c00717 	ldw	r7,28(sp)
    3eb0:	00800c44 	movi	r2,49
    3eb4:	31800044 	addi	r6,r6,1
    3eb8:	d9800515 	stw	r6,20(sp)
    3ebc:	38800005 	stb	r2,0(r7)
    3ec0:	003edf06 	br	3a40 <_gp+0xfffe96d4>
    3ec4:	d8000b15 	stw	zero,44(sp)
    3ec8:	003c9f06 	br	3148 <_gp+0xfffe8ddc>
    3ecc:	903e7e1e 	bne	r18,zero,38c8 <_gp+0xfffe955c>
    3ed0:	00800434 	movhi	r2,16
    3ed4:	10bfffc4 	addi	r2,r2,-1
    3ed8:	9884703a 	and	r2,r19,r2
    3edc:	1000ea1e 	bne	r2,zero,4288 <_dtoa_r+0x1460>
    3ee0:	9cdffc2c 	andhi	r19,r19,32752
    3ee4:	9800e826 	beq	r19,zero,4288 <_dtoa_r+0x1460>
    3ee8:	d9c00817 	ldw	r7,32(sp)
    3eec:	b5800044 	addi	r22,r22,1
    3ef0:	04c00044 	movi	r19,1
    3ef4:	39c00044 	addi	r7,r7,1
    3ef8:	d9c00815 	stw	r7,32(sp)
    3efc:	d8800d17 	ldw	r2,52(sp)
    3f00:	103e721e 	bne	r2,zero,38cc <_gp+0xfffe9560>
    3f04:	00800044 	movi	r2,1
    3f08:	003e7906 	br	38f0 <_gp+0xfffe9584>
    3f0c:	8009883a 	mov	r4,r16
    3f10:	000d2e80 	call	d2e8 <__floatsidf>
    3f14:	d9800f17 	ldw	r6,60(sp)
    3f18:	d9c01017 	ldw	r7,64(sp)
    3f1c:	1009883a 	mov	r4,r2
    3f20:	180b883a 	mov	r5,r3
    3f24:	000c1000 	call	c100 <__muldf3>
    3f28:	000d883a 	mov	r6,zero
    3f2c:	01d00734 	movhi	r7,16412
    3f30:	1009883a 	mov	r4,r2
    3f34:	180b883a 	mov	r5,r3
    3f38:	000ac2c0 	call	ac2c <__adddf3>
    3f3c:	047f3034 	movhi	r17,64704
    3f40:	1021883a 	mov	r16,r2
    3f44:	1c63883a 	add	r17,r3,r17
    3f48:	d9000f17 	ldw	r4,60(sp)
    3f4c:	d9401017 	ldw	r5,64(sp)
    3f50:	000d883a 	mov	r6,zero
    3f54:	01d00534 	movhi	r7,16404
    3f58:	000c96c0 	call	c96c <__subdf3>
    3f5c:	800d883a 	mov	r6,r16
    3f60:	880f883a 	mov	r7,r17
    3f64:	1009883a 	mov	r4,r2
    3f68:	180b883a 	mov	r5,r3
    3f6c:	102b883a 	mov	r21,r2
    3f70:	1829883a 	mov	r20,r3
    3f74:	000bf300 	call	bf30 <__gedf2>
    3f78:	00806c16 	blt	zero,r2,412c <_dtoa_r+0x1304>
    3f7c:	89e0003c 	xorhi	r7,r17,32768
    3f80:	800d883a 	mov	r6,r16
    3f84:	a809883a 	mov	r4,r21
    3f88:	a00b883a 	mov	r5,r20
    3f8c:	000c00c0 	call	c00c <__ledf2>
    3f90:	103d7e0e 	bge	r2,zero,358c <_gp+0xfffe9220>
    3f94:	002b883a 	mov	r21,zero
    3f98:	0023883a 	mov	r17,zero
    3f9c:	003efb06 	br	3b8c <_gp+0xfffe9820>
    3fa0:	d8800717 	ldw	r2,28(sp)
    3fa4:	003bd006 	br	2ee8 <_gp+0xfffe8b7c>
    3fa8:	d9000a17 	ldw	r4,40(sp)
    3fac:	d9800d17 	ldw	r6,52(sp)
    3fb0:	dd400a15 	stw	r21,40(sp)
    3fb4:	a905c83a 	sub	r2,r21,r4
    3fb8:	308d883a 	add	r6,r6,r2
    3fbc:	d9800d15 	stw	r6,52(sp)
    3fc0:	002b883a 	mov	r21,zero
    3fc4:	003e0606 	br	37e0 <_gp+0xfffe9474>
    3fc8:	9023883a 	mov	r17,r18
    3fcc:	9829883a 	mov	r20,r19
    3fd0:	04000084 	movi	r16,2
    3fd4:	003c9206 	br	3220 <_gp+0xfffe8eb4>
    3fd8:	04000044 	movi	r16,1
    3fdc:	dc000c15 	stw	r16,48(sp)
    3fe0:	dc000615 	stw	r16,24(sp)
    3fe4:	dc002215 	stw	r16,136(sp)
    3fe8:	e0001115 	stw	zero,68(fp)
    3fec:	000b883a 	mov	r5,zero
    3ff0:	003c6906 	br	3198 <_gp+0xfffe8e2c>
    3ff4:	3021883a 	mov	r16,r6
    3ff8:	003ffb06 	br	3fe8 <_gp+0xfffe9c7c>
    3ffc:	1000021e 	bne	r2,zero,4008 <_dtoa_r+0x11e0>
    4000:	4200004c 	andi	r8,r8,1
    4004:	403e7d1e 	bne	r8,zero,39fc <_gp+0xfffe9690>
    4008:	01000c04 	movi	r4,48
    400c:	00000106 	br	4014 <_dtoa_r+0x11ec>
    4010:	102f883a 	mov	r23,r2
    4014:	b8bfffc4 	addi	r2,r23,-1
    4018:	10c00007 	ldb	r3,0(r2)
    401c:	193ffc26 	beq	r3,r4,4010 <_gp+0xfffe9ca4>
    4020:	003e8706 	br	3a40 <_gp+0xfffe96d4>
    4024:	d8800517 	ldw	r2,20(sp)
    4028:	00a3c83a 	sub	r17,zero,r2
    402c:	8800a426 	beq	r17,zero,42c0 <_dtoa_r+0x1498>
    4030:	888003cc 	andi	r2,r17,15
    4034:	100490fa 	slli	r2,r2,3
    4038:	00c00074 	movhi	r3,1
    403c:	18c1ab04 	addi	r3,r3,1708
    4040:	1885883a 	add	r2,r3,r2
    4044:	11800017 	ldw	r6,0(r2)
    4048:	11c00117 	ldw	r7,4(r2)
    404c:	9009883a 	mov	r4,r18
    4050:	980b883a 	mov	r5,r19
    4054:	8823d13a 	srai	r17,r17,4
    4058:	000c1000 	call	c100 <__muldf3>
    405c:	d8800f15 	stw	r2,60(sp)
    4060:	d8c01015 	stw	r3,64(sp)
    4064:	8800e826 	beq	r17,zero,4408 <_dtoa_r+0x15e0>
    4068:	05000074 	movhi	r20,1
    406c:	a501a104 	addi	r20,r20,1668
    4070:	04000084 	movi	r16,2
    4074:	8980004c 	andi	r6,r17,1
    4078:	1009883a 	mov	r4,r2
    407c:	8823d07a 	srai	r17,r17,1
    4080:	180b883a 	mov	r5,r3
    4084:	30000426 	beq	r6,zero,4098 <_dtoa_r+0x1270>
    4088:	a1800017 	ldw	r6,0(r20)
    408c:	a1c00117 	ldw	r7,4(r20)
    4090:	84000044 	addi	r16,r16,1
    4094:	000c1000 	call	c100 <__muldf3>
    4098:	a5000204 	addi	r20,r20,8
    409c:	883ff51e 	bne	r17,zero,4074 <_gp+0xfffe9d08>
    40a0:	d8800f15 	stw	r2,60(sp)
    40a4:	d8c01015 	stw	r3,64(sp)
    40a8:	003c7606 	br	3284 <_gp+0xfffe8f18>
    40ac:	00c00c04 	movi	r3,48
    40b0:	10c00005 	stb	r3,0(r2)
    40b4:	d8c00517 	ldw	r3,20(sp)
    40b8:	bd3fffc3 	ldbu	r20,-1(r23)
    40bc:	18c00044 	addi	r3,r3,1
    40c0:	d8c00515 	stw	r3,20(sp)
    40c4:	003db906 	br	37ac <_gp+0xfffe9440>
    40c8:	89400117 	ldw	r5,4(r17)
    40cc:	e009883a 	mov	r4,fp
    40d0:	0005ebc0 	call	5ebc <_Balloc>
    40d4:	89800417 	ldw	r6,16(r17)
    40d8:	89400304 	addi	r5,r17,12
    40dc:	11000304 	addi	r4,r2,12
    40e0:	31800084 	addi	r6,r6,2
    40e4:	318d883a 	add	r6,r6,r6
    40e8:	318d883a 	add	r6,r6,r6
    40ec:	1027883a 	mov	r19,r2
    40f0:	0005c4c0 	call	5c4c <memcpy>
    40f4:	01800044 	movi	r6,1
    40f8:	980b883a 	mov	r5,r19
    40fc:	e009883a 	mov	r4,fp
    4100:	00066f80 	call	66f8 <__lshift>
    4104:	1029883a 	mov	r20,r2
    4108:	003ecc06 	br	3c3c <_gp+0xfffe98d0>
    410c:	00800e44 	movi	r2,57
    4110:	90809026 	beq	r18,r2,4354 <_dtoa_r+0x152c>
    4114:	92000044 	addi	r8,r18,1
    4118:	003f1f06 	br	3d98 <_gp+0xfffe9a2c>
    411c:	9011883a 	mov	r8,r18
    4120:	8825883a 	mov	r18,r17
    4124:	a023883a 	mov	r17,r20
    4128:	003e2906 	br	39d0 <_gp+0xfffe9664>
    412c:	002b883a 	mov	r21,zero
    4130:	0023883a 	mov	r17,zero
    4134:	003f5406 	br	3e88 <_gp+0xfffe9b1c>
    4138:	61bfffc4 	addi	r6,r12,-1
    413c:	300490fa 	slli	r2,r6,3
    4140:	00c00074 	movhi	r3,1
    4144:	18c1ab04 	addi	r3,r3,1708
    4148:	1885883a 	add	r2,r3,r2
    414c:	11000017 	ldw	r4,0(r2)
    4150:	11400117 	ldw	r5,4(r2)
    4154:	d8800717 	ldw	r2,28(sp)
    4158:	880f883a 	mov	r7,r17
    415c:	d9801215 	stw	r6,72(sp)
    4160:	800d883a 	mov	r6,r16
    4164:	db001615 	stw	r12,88(sp)
    4168:	15c00044 	addi	r23,r2,1
    416c:	000c1000 	call	c100 <__muldf3>
    4170:	d9401017 	ldw	r5,64(sp)
    4174:	d9000f17 	ldw	r4,60(sp)
    4178:	d8c01515 	stw	r3,84(sp)
    417c:	d8801415 	stw	r2,80(sp)
    4180:	000d2680 	call	d268 <__fixdfsi>
    4184:	1009883a 	mov	r4,r2
    4188:	1021883a 	mov	r16,r2
    418c:	000d2e80 	call	d2e8 <__floatsidf>
    4190:	d9000f17 	ldw	r4,60(sp)
    4194:	d9401017 	ldw	r5,64(sp)
    4198:	100d883a 	mov	r6,r2
    419c:	180f883a 	mov	r7,r3
    41a0:	000c96c0 	call	c96c <__subdf3>
    41a4:	1829883a 	mov	r20,r3
    41a8:	d8c00717 	ldw	r3,28(sp)
    41ac:	84000c04 	addi	r16,r16,48
    41b0:	1023883a 	mov	r17,r2
    41b4:	1c000005 	stb	r16,0(r3)
    41b8:	db001617 	ldw	r12,88(sp)
    41bc:	00800044 	movi	r2,1
    41c0:	60802226 	beq	r12,r2,424c <_dtoa_r+0x1424>
    41c4:	d9c00717 	ldw	r7,28(sp)
    41c8:	8805883a 	mov	r2,r17
    41cc:	b82b883a 	mov	r21,r23
    41d0:	3b19883a 	add	r12,r7,r12
    41d4:	6023883a 	mov	r17,r12
    41d8:	a007883a 	mov	r3,r20
    41dc:	dc800f15 	stw	r18,60(sp)
    41e0:	000d883a 	mov	r6,zero
    41e4:	01d00934 	movhi	r7,16420
    41e8:	1009883a 	mov	r4,r2
    41ec:	180b883a 	mov	r5,r3
    41f0:	000c1000 	call	c100 <__muldf3>
    41f4:	180b883a 	mov	r5,r3
    41f8:	1009883a 	mov	r4,r2
    41fc:	1829883a 	mov	r20,r3
    4200:	1025883a 	mov	r18,r2
    4204:	000d2680 	call	d268 <__fixdfsi>
    4208:	1009883a 	mov	r4,r2
    420c:	1021883a 	mov	r16,r2
    4210:	000d2e80 	call	d2e8 <__floatsidf>
    4214:	100d883a 	mov	r6,r2
    4218:	180f883a 	mov	r7,r3
    421c:	9009883a 	mov	r4,r18
    4220:	a00b883a 	mov	r5,r20
    4224:	84000c04 	addi	r16,r16,48
    4228:	000c96c0 	call	c96c <__subdf3>
    422c:	ad400044 	addi	r21,r21,1
    4230:	ac3fffc5 	stb	r16,-1(r21)
    4234:	ac7fea1e 	bne	r21,r17,41e0 <_gp+0xfffe9e74>
    4238:	1023883a 	mov	r17,r2
    423c:	d8801217 	ldw	r2,72(sp)
    4240:	dc800f17 	ldw	r18,60(sp)
    4244:	1829883a 	mov	r20,r3
    4248:	b8af883a 	add	r23,r23,r2
    424c:	d9001417 	ldw	r4,80(sp)
    4250:	d9401517 	ldw	r5,84(sp)
    4254:	000d883a 	mov	r6,zero
    4258:	01cff834 	movhi	r7,16352
    425c:	000ac2c0 	call	ac2c <__adddf3>
    4260:	880d883a 	mov	r6,r17
    4264:	a00f883a 	mov	r7,r20
    4268:	1009883a 	mov	r4,r2
    426c:	180b883a 	mov	r5,r3
    4270:	000c00c0 	call	c00c <__ledf2>
    4274:	10003e0e 	bge	r2,zero,4370 <_dtoa_r+0x1548>
    4278:	d9001317 	ldw	r4,76(sp)
    427c:	bd3fffc3 	ldbu	r20,-1(r23)
    4280:	d9000515 	stw	r4,20(sp)
    4284:	003d3b06 	br	3774 <_gp+0xfffe9408>
    4288:	0027883a 	mov	r19,zero
    428c:	003f1b06 	br	3efc <_gp+0xfffe9b90>
    4290:	d8800817 	ldw	r2,32(sp)
    4294:	11e9c83a 	sub	r20,r2,r7
    4298:	0005883a 	mov	r2,zero
    429c:	003d5406 	br	37f0 <_gp+0xfffe9484>
    42a0:	00800044 	movi	r2,1
    42a4:	003dc706 	br	39c4 <_gp+0xfffe9658>
    42a8:	d8c00217 	ldw	r3,8(sp)
    42ac:	00800d84 	movi	r2,54
    42b0:	dd400a17 	ldw	r21,40(sp)
    42b4:	10c5c83a 	sub	r2,r2,r3
    42b8:	dd000817 	ldw	r20,32(sp)
    42bc:	003d4c06 	br	37f0 <_gp+0xfffe9484>
    42c0:	dc800f15 	stw	r18,60(sp)
    42c4:	dcc01015 	stw	r19,64(sp)
    42c8:	04000084 	movi	r16,2
    42cc:	003bed06 	br	3284 <_gp+0xfffe8f18>
    42d0:	d9000617 	ldw	r4,24(sp)
    42d4:	203f0d26 	beq	r4,zero,3f0c <_gp+0xfffe9ba0>
    42d8:	d9800c17 	ldw	r6,48(sp)
    42dc:	01bcab0e 	bge	zero,r6,358c <_gp+0xfffe9220>
    42e0:	d9401017 	ldw	r5,64(sp)
    42e4:	d9000f17 	ldw	r4,60(sp)
    42e8:	000d883a 	mov	r6,zero
    42ec:	01d00934 	movhi	r7,16420
    42f0:	000c1000 	call	c100 <__muldf3>
    42f4:	81000044 	addi	r4,r16,1
    42f8:	d8800f15 	stw	r2,60(sp)
    42fc:	d8c01015 	stw	r3,64(sp)
    4300:	000d2e80 	call	d2e8 <__floatsidf>
    4304:	d9800f17 	ldw	r6,60(sp)
    4308:	d9c01017 	ldw	r7,64(sp)
    430c:	1009883a 	mov	r4,r2
    4310:	180b883a 	mov	r5,r3
    4314:	000c1000 	call	c100 <__muldf3>
    4318:	01d00734 	movhi	r7,16412
    431c:	000d883a 	mov	r6,zero
    4320:	1009883a 	mov	r4,r2
    4324:	180b883a 	mov	r5,r3
    4328:	000ac2c0 	call	ac2c <__adddf3>
    432c:	d9c00517 	ldw	r7,20(sp)
    4330:	047f3034 	movhi	r17,64704
    4334:	1021883a 	mov	r16,r2
    4338:	39ffffc4 	addi	r7,r7,-1
    433c:	d9c01315 	stw	r7,76(sp)
    4340:	1c63883a 	add	r17,r3,r17
    4344:	db000c17 	ldw	r12,48(sp)
    4348:	003bea06 	br	32f4 <_gp+0xfffe8f88>
    434c:	dc000915 	stw	r16,36(sp)
    4350:	003e0e06 	br	3b8c <_gp+0xfffe9820>
    4354:	01000e44 	movi	r4,57
    4358:	8825883a 	mov	r18,r17
    435c:	9dc00044 	addi	r23,r19,1
    4360:	99000005 	stb	r4,0(r19)
    4364:	a023883a 	mov	r17,r20
    4368:	dc000915 	stw	r16,36(sp)
    436c:	003da406 	br	3a00 <_gp+0xfffe9694>
    4370:	d9801417 	ldw	r6,80(sp)
    4374:	d9c01517 	ldw	r7,84(sp)
    4378:	0009883a 	mov	r4,zero
    437c:	014ff834 	movhi	r5,16352
    4380:	000c96c0 	call	c96c <__subdf3>
    4384:	880d883a 	mov	r6,r17
    4388:	a00f883a 	mov	r7,r20
    438c:	1009883a 	mov	r4,r2
    4390:	180b883a 	mov	r5,r3
    4394:	000bf300 	call	bf30 <__gedf2>
    4398:	00bc7c0e 	bge	zero,r2,358c <_gp+0xfffe9220>
    439c:	01000c04 	movi	r4,48
    43a0:	00000106 	br	43a8 <_dtoa_r+0x1580>
    43a4:	102f883a 	mov	r23,r2
    43a8:	b8bfffc4 	addi	r2,r23,-1
    43ac:	10c00007 	ldb	r3,0(r2)
    43b0:	193ffc26 	beq	r3,r4,43a4 <_gp+0xfffea038>
    43b4:	d9801317 	ldw	r6,76(sp)
    43b8:	d9800515 	stw	r6,20(sp)
    43bc:	003c4406 	br	34d0 <_gp+0xfffe9164>
    43c0:	d9801317 	ldw	r6,76(sp)
    43c4:	d9800515 	stw	r6,20(sp)
    43c8:	003cea06 	br	3774 <_gp+0xfffe9408>
    43cc:	dd800f17 	ldw	r22,60(sp)
    43d0:	dcc01017 	ldw	r19,64(sp)
    43d4:	dc801217 	ldw	r18,72(sp)
    43d8:	003c6c06 	br	358c <_gp+0xfffe9220>
    43dc:	903e031e 	bne	r18,zero,3bec <_gp+0xfffe9880>
    43e0:	003ebb06 	br	3ed0 <_gp+0xfffe9b64>
    43e4:	103e6c1e 	bne	r2,zero,3d98 <_gp+0xfffe9a2c>
    43e8:	4080004c 	andi	r2,r8,1
    43ec:	103e6a26 	beq	r2,zero,3d98 <_gp+0xfffe9a2c>
    43f0:	003e6606 	br	3d8c <_gp+0xfffe9a20>
    43f4:	d8c00317 	ldw	r3,12(sp)
    43f8:	00800084 	movi	r2,2
    43fc:	10c02916 	blt	r2,r3,44a4 <_dtoa_r+0x167c>
    4400:	d9000c17 	ldw	r4,48(sp)
    4404:	003e8806 	br	3e28 <_gp+0xfffe9abc>
    4408:	04000084 	movi	r16,2
    440c:	003b9d06 	br	3284 <_gp+0xfffe8f18>
    4410:	d9001317 	ldw	r4,76(sp)
    4414:	d9000515 	stw	r4,20(sp)
    4418:	003cd606 	br	3774 <_gp+0xfffe9408>
    441c:	d8801317 	ldw	r2,76(sp)
    4420:	d8800515 	stw	r2,20(sp)
    4424:	003c2a06 	br	34d0 <_gp+0xfffe9164>
    4428:	d9800317 	ldw	r6,12(sp)
    442c:	00800084 	movi	r2,2
    4430:	11801516 	blt	r2,r6,4488 <_dtoa_r+0x1660>
    4434:	d9c00c17 	ldw	r7,48(sp)
    4438:	d9c00615 	stw	r7,24(sp)
    443c:	003df706 	br	3c1c <_gp+0xfffe98b0>
    4440:	193d3926 	beq	r3,r4,3928 <_gp+0xfffe95bc>
    4444:	00c00f04 	movi	r3,60
    4448:	1885c83a 	sub	r2,r3,r2
    444c:	003ddf06 	br	3bcc <_gp+0xfffe9860>
    4450:	e009883a 	mov	r4,fp
    4454:	e0001115 	stw	zero,68(fp)
    4458:	000b883a 	mov	r5,zero
    445c:	0005ebc0 	call	5ebc <_Balloc>
    4460:	d8800715 	stw	r2,28(sp)
    4464:	d8c00717 	ldw	r3,28(sp)
    4468:	00bfffc4 	movi	r2,-1
    446c:	01000044 	movi	r4,1
    4470:	d8800c15 	stw	r2,48(sp)
    4474:	e0c01015 	stw	r3,64(fp)
    4478:	d9000b15 	stw	r4,44(sp)
    447c:	d8800615 	stw	r2,24(sp)
    4480:	d8002215 	stw	zero,136(sp)
    4484:	003c4106 	br	358c <_gp+0xfffe9220>
    4488:	d8c00c17 	ldw	r3,48(sp)
    448c:	d8c00615 	stw	r3,24(sp)
    4490:	003e7006 	br	3e54 <_gp+0xfffe9ae8>
    4494:	04400044 	movi	r17,1
    4498:	003b2006 	br	311c <_gp+0xfffe8db0>
    449c:	000b883a 	mov	r5,zero
    44a0:	003b3d06 	br	3198 <_gp+0xfffe8e2c>
    44a4:	d8800c17 	ldw	r2,48(sp)
    44a8:	d8800615 	stw	r2,24(sp)
    44ac:	003e6906 	br	3e54 <_gp+0xfffe9ae8>

000044b0 <__sflush_r>:
    44b0:	2880030b 	ldhu	r2,12(r5)
    44b4:	defffb04 	addi	sp,sp,-20
    44b8:	dcc00315 	stw	r19,12(sp)
    44bc:	dc400115 	stw	r17,4(sp)
    44c0:	dfc00415 	stw	ra,16(sp)
    44c4:	dc800215 	stw	r18,8(sp)
    44c8:	dc000015 	stw	r16,0(sp)
    44cc:	10c0020c 	andi	r3,r2,8
    44d0:	2823883a 	mov	r17,r5
    44d4:	2027883a 	mov	r19,r4
    44d8:	1800311e 	bne	r3,zero,45a0 <__sflush_r+0xf0>
    44dc:	28c00117 	ldw	r3,4(r5)
    44e0:	10820014 	ori	r2,r2,2048
    44e4:	2880030d 	sth	r2,12(r5)
    44e8:	00c04b0e 	bge	zero,r3,4618 <__sflush_r+0x168>
    44ec:	8a000a17 	ldw	r8,40(r17)
    44f0:	40002326 	beq	r8,zero,4580 <__sflush_r+0xd0>
    44f4:	9c000017 	ldw	r16,0(r19)
    44f8:	10c4000c 	andi	r3,r2,4096
    44fc:	98000015 	stw	zero,0(r19)
    4500:	18004826 	beq	r3,zero,4624 <__sflush_r+0x174>
    4504:	89801417 	ldw	r6,80(r17)
    4508:	10c0010c 	andi	r3,r2,4
    450c:	18000626 	beq	r3,zero,4528 <__sflush_r+0x78>
    4510:	88c00117 	ldw	r3,4(r17)
    4514:	88800c17 	ldw	r2,48(r17)
    4518:	30cdc83a 	sub	r6,r6,r3
    451c:	10000226 	beq	r2,zero,4528 <__sflush_r+0x78>
    4520:	88800f17 	ldw	r2,60(r17)
    4524:	308dc83a 	sub	r6,r6,r2
    4528:	89400717 	ldw	r5,28(r17)
    452c:	000f883a 	mov	r7,zero
    4530:	9809883a 	mov	r4,r19
    4534:	403ee83a 	callr	r8
    4538:	00ffffc4 	movi	r3,-1
    453c:	10c04426 	beq	r2,r3,4650 <__sflush_r+0x1a0>
    4540:	88c0030b 	ldhu	r3,12(r17)
    4544:	89000417 	ldw	r4,16(r17)
    4548:	88000115 	stw	zero,4(r17)
    454c:	197dffcc 	andi	r5,r3,63487
    4550:	8940030d 	sth	r5,12(r17)
    4554:	89000015 	stw	r4,0(r17)
    4558:	18c4000c 	andi	r3,r3,4096
    455c:	18002c1e 	bne	r3,zero,4610 <__sflush_r+0x160>
    4560:	89400c17 	ldw	r5,48(r17)
    4564:	9c000015 	stw	r16,0(r19)
    4568:	28000526 	beq	r5,zero,4580 <__sflush_r+0xd0>
    456c:	88801004 	addi	r2,r17,64
    4570:	28800226 	beq	r5,r2,457c <__sflush_r+0xcc>
    4574:	9809883a 	mov	r4,r19
    4578:	0004c2c0 	call	4c2c <_free_r>
    457c:	88000c15 	stw	zero,48(r17)
    4580:	0005883a 	mov	r2,zero
    4584:	dfc00417 	ldw	ra,16(sp)
    4588:	dcc00317 	ldw	r19,12(sp)
    458c:	dc800217 	ldw	r18,8(sp)
    4590:	dc400117 	ldw	r17,4(sp)
    4594:	dc000017 	ldw	r16,0(sp)
    4598:	dec00504 	addi	sp,sp,20
    459c:	f800283a 	ret
    45a0:	2c800417 	ldw	r18,16(r5)
    45a4:	903ff626 	beq	r18,zero,4580 <_gp+0xfffea214>
    45a8:	2c000017 	ldw	r16,0(r5)
    45ac:	108000cc 	andi	r2,r2,3
    45b0:	2c800015 	stw	r18,0(r5)
    45b4:	84a1c83a 	sub	r16,r16,r18
    45b8:	1000131e 	bne	r2,zero,4608 <__sflush_r+0x158>
    45bc:	28800517 	ldw	r2,20(r5)
    45c0:	88800215 	stw	r2,8(r17)
    45c4:	04000316 	blt	zero,r16,45d4 <__sflush_r+0x124>
    45c8:	003fed06 	br	4580 <_gp+0xfffea214>
    45cc:	90a5883a 	add	r18,r18,r2
    45d0:	043feb0e 	bge	zero,r16,4580 <_gp+0xfffea214>
    45d4:	88800917 	ldw	r2,36(r17)
    45d8:	89400717 	ldw	r5,28(r17)
    45dc:	800f883a 	mov	r7,r16
    45e0:	900d883a 	mov	r6,r18
    45e4:	9809883a 	mov	r4,r19
    45e8:	103ee83a 	callr	r2
    45ec:	80a1c83a 	sub	r16,r16,r2
    45f0:	00bff616 	blt	zero,r2,45cc <_gp+0xfffea260>
    45f4:	88c0030b 	ldhu	r3,12(r17)
    45f8:	00bfffc4 	movi	r2,-1
    45fc:	18c01014 	ori	r3,r3,64
    4600:	88c0030d 	sth	r3,12(r17)
    4604:	003fdf06 	br	4584 <_gp+0xfffea218>
    4608:	0005883a 	mov	r2,zero
    460c:	003fec06 	br	45c0 <_gp+0xfffea254>
    4610:	88801415 	stw	r2,80(r17)
    4614:	003fd206 	br	4560 <_gp+0xfffea1f4>
    4618:	28c00f17 	ldw	r3,60(r5)
    461c:	00ffb316 	blt	zero,r3,44ec <_gp+0xfffea180>
    4620:	003fd706 	br	4580 <_gp+0xfffea214>
    4624:	89400717 	ldw	r5,28(r17)
    4628:	000d883a 	mov	r6,zero
    462c:	01c00044 	movi	r7,1
    4630:	9809883a 	mov	r4,r19
    4634:	403ee83a 	callr	r8
    4638:	100d883a 	mov	r6,r2
    463c:	00bfffc4 	movi	r2,-1
    4640:	30801426 	beq	r6,r2,4694 <__sflush_r+0x1e4>
    4644:	8880030b 	ldhu	r2,12(r17)
    4648:	8a000a17 	ldw	r8,40(r17)
    464c:	003fae06 	br	4508 <_gp+0xfffea19c>
    4650:	98c00017 	ldw	r3,0(r19)
    4654:	183fba26 	beq	r3,zero,4540 <_gp+0xfffea1d4>
    4658:	01000744 	movi	r4,29
    465c:	19000626 	beq	r3,r4,4678 <__sflush_r+0x1c8>
    4660:	01000584 	movi	r4,22
    4664:	19000426 	beq	r3,r4,4678 <__sflush_r+0x1c8>
    4668:	88c0030b 	ldhu	r3,12(r17)
    466c:	18c01014 	ori	r3,r3,64
    4670:	88c0030d 	sth	r3,12(r17)
    4674:	003fc306 	br	4584 <_gp+0xfffea218>
    4678:	8880030b 	ldhu	r2,12(r17)
    467c:	88c00417 	ldw	r3,16(r17)
    4680:	88000115 	stw	zero,4(r17)
    4684:	10bdffcc 	andi	r2,r2,63487
    4688:	8880030d 	sth	r2,12(r17)
    468c:	88c00015 	stw	r3,0(r17)
    4690:	003fb306 	br	4560 <_gp+0xfffea1f4>
    4694:	98800017 	ldw	r2,0(r19)
    4698:	103fea26 	beq	r2,zero,4644 <_gp+0xfffea2d8>
    469c:	00c00744 	movi	r3,29
    46a0:	10c00226 	beq	r2,r3,46ac <__sflush_r+0x1fc>
    46a4:	00c00584 	movi	r3,22
    46a8:	10c0031e 	bne	r2,r3,46b8 <__sflush_r+0x208>
    46ac:	9c000015 	stw	r16,0(r19)
    46b0:	0005883a 	mov	r2,zero
    46b4:	003fb306 	br	4584 <_gp+0xfffea218>
    46b8:	88c0030b 	ldhu	r3,12(r17)
    46bc:	3005883a 	mov	r2,r6
    46c0:	18c01014 	ori	r3,r3,64
    46c4:	88c0030d 	sth	r3,12(r17)
    46c8:	003fae06 	br	4584 <_gp+0xfffea218>

000046cc <_fflush_r>:
    46cc:	defffd04 	addi	sp,sp,-12
    46d0:	dc000115 	stw	r16,4(sp)
    46d4:	dfc00215 	stw	ra,8(sp)
    46d8:	2021883a 	mov	r16,r4
    46dc:	20000226 	beq	r4,zero,46e8 <_fflush_r+0x1c>
    46e0:	20800e17 	ldw	r2,56(r4)
    46e4:	10000c26 	beq	r2,zero,4718 <_fflush_r+0x4c>
    46e8:	2880030f 	ldh	r2,12(r5)
    46ec:	1000051e 	bne	r2,zero,4704 <_fflush_r+0x38>
    46f0:	0005883a 	mov	r2,zero
    46f4:	dfc00217 	ldw	ra,8(sp)
    46f8:	dc000117 	ldw	r16,4(sp)
    46fc:	dec00304 	addi	sp,sp,12
    4700:	f800283a 	ret
    4704:	8009883a 	mov	r4,r16
    4708:	dfc00217 	ldw	ra,8(sp)
    470c:	dc000117 	ldw	r16,4(sp)
    4710:	dec00304 	addi	sp,sp,12
    4714:	00044b01 	jmpi	44b0 <__sflush_r>
    4718:	d9400015 	stw	r5,0(sp)
    471c:	0004ab80 	call	4ab8 <__sinit>
    4720:	d9400017 	ldw	r5,0(sp)
    4724:	003ff006 	br	46e8 <_gp+0xfffea37c>

00004728 <fflush>:
    4728:	20000526 	beq	r4,zero,4740 <fflush+0x18>
    472c:	00800074 	movhi	r2,1
    4730:	1088dc04 	addi	r2,r2,9072
    4734:	200b883a 	mov	r5,r4
    4738:	11000017 	ldw	r4,0(r2)
    473c:	00046cc1 	jmpi	46cc <_fflush_r>
    4740:	00800074 	movhi	r2,1
    4744:	1088db04 	addi	r2,r2,9068
    4748:	11000017 	ldw	r4,0(r2)
    474c:	01400034 	movhi	r5,0
    4750:	2951b304 	addi	r5,r5,18124
    4754:	00050001 	jmpi	5000 <_fwalk_reent>

00004758 <__fp_unlock>:
    4758:	0005883a 	mov	r2,zero
    475c:	f800283a 	ret

00004760 <_cleanup_r>:
    4760:	01400074 	movhi	r5,1
    4764:	2962dd04 	addi	r5,r5,-29836
    4768:	00050001 	jmpi	5000 <_fwalk_reent>

0000476c <__sinit.part.1>:
    476c:	defff704 	addi	sp,sp,-36
    4770:	00c00034 	movhi	r3,0
    4774:	dfc00815 	stw	ra,32(sp)
    4778:	ddc00715 	stw	r23,28(sp)
    477c:	dd800615 	stw	r22,24(sp)
    4780:	dd400515 	stw	r21,20(sp)
    4784:	dd000415 	stw	r20,16(sp)
    4788:	dcc00315 	stw	r19,12(sp)
    478c:	dc800215 	stw	r18,8(sp)
    4790:	dc400115 	stw	r17,4(sp)
    4794:	dc000015 	stw	r16,0(sp)
    4798:	18d1d804 	addi	r3,r3,18272
    479c:	24000117 	ldw	r16,4(r4)
    47a0:	20c00f15 	stw	r3,60(r4)
    47a4:	2080bb04 	addi	r2,r4,748
    47a8:	00c000c4 	movi	r3,3
    47ac:	20c0b915 	stw	r3,740(r4)
    47b0:	2080ba15 	stw	r2,744(r4)
    47b4:	2000b815 	stw	zero,736(r4)
    47b8:	05c00204 	movi	r23,8
    47bc:	00800104 	movi	r2,4
    47c0:	2025883a 	mov	r18,r4
    47c4:	b80d883a 	mov	r6,r23
    47c8:	81001704 	addi	r4,r16,92
    47cc:	000b883a 	mov	r5,zero
    47d0:	80000015 	stw	zero,0(r16)
    47d4:	80000115 	stw	zero,4(r16)
    47d8:	80000215 	stw	zero,8(r16)
    47dc:	8080030d 	sth	r2,12(r16)
    47e0:	80001915 	stw	zero,100(r16)
    47e4:	8000038d 	sth	zero,14(r16)
    47e8:	80000415 	stw	zero,16(r16)
    47ec:	80000515 	stw	zero,20(r16)
    47f0:	80000615 	stw	zero,24(r16)
    47f4:	0005d940 	call	5d94 <memset>
    47f8:	05800034 	movhi	r22,0
    47fc:	94400217 	ldw	r17,8(r18)
    4800:	05400034 	movhi	r21,0
    4804:	05000034 	movhi	r20,0
    4808:	04c00034 	movhi	r19,0
    480c:	b59c0f04 	addi	r22,r22,28732
    4810:	ad5c2604 	addi	r21,r21,28824
    4814:	a51c4504 	addi	r20,r20,28948
    4818:	9cdc5c04 	addi	r19,r19,29040
    481c:	85800815 	stw	r22,32(r16)
    4820:	85400915 	stw	r21,36(r16)
    4824:	85000a15 	stw	r20,40(r16)
    4828:	84c00b15 	stw	r19,44(r16)
    482c:	84000715 	stw	r16,28(r16)
    4830:	00800284 	movi	r2,10
    4834:	8880030d 	sth	r2,12(r17)
    4838:	00800044 	movi	r2,1
    483c:	b80d883a 	mov	r6,r23
    4840:	89001704 	addi	r4,r17,92
    4844:	000b883a 	mov	r5,zero
    4848:	88000015 	stw	zero,0(r17)
    484c:	88000115 	stw	zero,4(r17)
    4850:	88000215 	stw	zero,8(r17)
    4854:	88001915 	stw	zero,100(r17)
    4858:	8880038d 	sth	r2,14(r17)
    485c:	88000415 	stw	zero,16(r17)
    4860:	88000515 	stw	zero,20(r17)
    4864:	88000615 	stw	zero,24(r17)
    4868:	0005d940 	call	5d94 <memset>
    486c:	94000317 	ldw	r16,12(r18)
    4870:	00800484 	movi	r2,18
    4874:	8c400715 	stw	r17,28(r17)
    4878:	8d800815 	stw	r22,32(r17)
    487c:	8d400915 	stw	r21,36(r17)
    4880:	8d000a15 	stw	r20,40(r17)
    4884:	8cc00b15 	stw	r19,44(r17)
    4888:	8080030d 	sth	r2,12(r16)
    488c:	00800084 	movi	r2,2
    4890:	80000015 	stw	zero,0(r16)
    4894:	80000115 	stw	zero,4(r16)
    4898:	80000215 	stw	zero,8(r16)
    489c:	80001915 	stw	zero,100(r16)
    48a0:	8080038d 	sth	r2,14(r16)
    48a4:	80000415 	stw	zero,16(r16)
    48a8:	80000515 	stw	zero,20(r16)
    48ac:	80000615 	stw	zero,24(r16)
    48b0:	b80d883a 	mov	r6,r23
    48b4:	000b883a 	mov	r5,zero
    48b8:	81001704 	addi	r4,r16,92
    48bc:	0005d940 	call	5d94 <memset>
    48c0:	00800044 	movi	r2,1
    48c4:	84000715 	stw	r16,28(r16)
    48c8:	85800815 	stw	r22,32(r16)
    48cc:	85400915 	stw	r21,36(r16)
    48d0:	85000a15 	stw	r20,40(r16)
    48d4:	84c00b15 	stw	r19,44(r16)
    48d8:	90800e15 	stw	r2,56(r18)
    48dc:	dfc00817 	ldw	ra,32(sp)
    48e0:	ddc00717 	ldw	r23,28(sp)
    48e4:	dd800617 	ldw	r22,24(sp)
    48e8:	dd400517 	ldw	r21,20(sp)
    48ec:	dd000417 	ldw	r20,16(sp)
    48f0:	dcc00317 	ldw	r19,12(sp)
    48f4:	dc800217 	ldw	r18,8(sp)
    48f8:	dc400117 	ldw	r17,4(sp)
    48fc:	dc000017 	ldw	r16,0(sp)
    4900:	dec00904 	addi	sp,sp,36
    4904:	f800283a 	ret

00004908 <__fp_lock>:
    4908:	0005883a 	mov	r2,zero
    490c:	f800283a 	ret

00004910 <__sfmoreglue>:
    4910:	defffc04 	addi	sp,sp,-16
    4914:	dc800215 	stw	r18,8(sp)
    4918:	2825883a 	mov	r18,r5
    491c:	dc000015 	stw	r16,0(sp)
    4920:	01401a04 	movi	r5,104
    4924:	2021883a 	mov	r16,r4
    4928:	913fffc4 	addi	r4,r18,-1
    492c:	dfc00315 	stw	ra,12(sp)
    4930:	dc400115 	stw	r17,4(sp)
    4934:	000049c0 	call	49c <__mulsi3>
    4938:	8009883a 	mov	r4,r16
    493c:	11401d04 	addi	r5,r2,116
    4940:	1023883a 	mov	r17,r2
    4944:	000535c0 	call	535c <_malloc_r>
    4948:	1021883a 	mov	r16,r2
    494c:	10000726 	beq	r2,zero,496c <__sfmoreglue+0x5c>
    4950:	11000304 	addi	r4,r2,12
    4954:	10000015 	stw	zero,0(r2)
    4958:	14800115 	stw	r18,4(r2)
    495c:	11000215 	stw	r4,8(r2)
    4960:	89801a04 	addi	r6,r17,104
    4964:	000b883a 	mov	r5,zero
    4968:	0005d940 	call	5d94 <memset>
    496c:	8005883a 	mov	r2,r16
    4970:	dfc00317 	ldw	ra,12(sp)
    4974:	dc800217 	ldw	r18,8(sp)
    4978:	dc400117 	ldw	r17,4(sp)
    497c:	dc000017 	ldw	r16,0(sp)
    4980:	dec00404 	addi	sp,sp,16
    4984:	f800283a 	ret

00004988 <__sfp>:
    4988:	defffb04 	addi	sp,sp,-20
    498c:	dc000015 	stw	r16,0(sp)
    4990:	04000074 	movhi	r16,1
    4994:	8408db04 	addi	r16,r16,9068
    4998:	dcc00315 	stw	r19,12(sp)
    499c:	2027883a 	mov	r19,r4
    49a0:	81000017 	ldw	r4,0(r16)
    49a4:	dfc00415 	stw	ra,16(sp)
    49a8:	dc800215 	stw	r18,8(sp)
    49ac:	20800e17 	ldw	r2,56(r4)
    49b0:	dc400115 	stw	r17,4(sp)
    49b4:	1000021e 	bne	r2,zero,49c0 <__sfp+0x38>
    49b8:	000476c0 	call	476c <__sinit.part.1>
    49bc:	81000017 	ldw	r4,0(r16)
    49c0:	2480b804 	addi	r18,r4,736
    49c4:	047fffc4 	movi	r17,-1
    49c8:	91000117 	ldw	r4,4(r18)
    49cc:	94000217 	ldw	r16,8(r18)
    49d0:	213fffc4 	addi	r4,r4,-1
    49d4:	20000a16 	blt	r4,zero,4a00 <__sfp+0x78>
    49d8:	8080030f 	ldh	r2,12(r16)
    49dc:	10000c26 	beq	r2,zero,4a10 <__sfp+0x88>
    49e0:	80c01d04 	addi	r3,r16,116
    49e4:	00000206 	br	49f0 <__sfp+0x68>
    49e8:	18bfe60f 	ldh	r2,-104(r3)
    49ec:	10000826 	beq	r2,zero,4a10 <__sfp+0x88>
    49f0:	213fffc4 	addi	r4,r4,-1
    49f4:	1c3ffd04 	addi	r16,r3,-12
    49f8:	18c01a04 	addi	r3,r3,104
    49fc:	247ffa1e 	bne	r4,r17,49e8 <_gp+0xfffea67c>
    4a00:	90800017 	ldw	r2,0(r18)
    4a04:	10001d26 	beq	r2,zero,4a7c <__sfp+0xf4>
    4a08:	1025883a 	mov	r18,r2
    4a0c:	003fee06 	br	49c8 <_gp+0xfffea65c>
    4a10:	00bfffc4 	movi	r2,-1
    4a14:	8080038d 	sth	r2,14(r16)
    4a18:	00800044 	movi	r2,1
    4a1c:	8080030d 	sth	r2,12(r16)
    4a20:	80001915 	stw	zero,100(r16)
    4a24:	80000015 	stw	zero,0(r16)
    4a28:	80000215 	stw	zero,8(r16)
    4a2c:	80000115 	stw	zero,4(r16)
    4a30:	80000415 	stw	zero,16(r16)
    4a34:	80000515 	stw	zero,20(r16)
    4a38:	80000615 	stw	zero,24(r16)
    4a3c:	01800204 	movi	r6,8
    4a40:	000b883a 	mov	r5,zero
    4a44:	81001704 	addi	r4,r16,92
    4a48:	0005d940 	call	5d94 <memset>
    4a4c:	8005883a 	mov	r2,r16
    4a50:	80000c15 	stw	zero,48(r16)
    4a54:	80000d15 	stw	zero,52(r16)
    4a58:	80001115 	stw	zero,68(r16)
    4a5c:	80001215 	stw	zero,72(r16)
    4a60:	dfc00417 	ldw	ra,16(sp)
    4a64:	dcc00317 	ldw	r19,12(sp)
    4a68:	dc800217 	ldw	r18,8(sp)
    4a6c:	dc400117 	ldw	r17,4(sp)
    4a70:	dc000017 	ldw	r16,0(sp)
    4a74:	dec00504 	addi	sp,sp,20
    4a78:	f800283a 	ret
    4a7c:	01400104 	movi	r5,4
    4a80:	9809883a 	mov	r4,r19
    4a84:	00049100 	call	4910 <__sfmoreglue>
    4a88:	90800015 	stw	r2,0(r18)
    4a8c:	103fde1e 	bne	r2,zero,4a08 <_gp+0xfffea69c>
    4a90:	00800304 	movi	r2,12
    4a94:	98800015 	stw	r2,0(r19)
    4a98:	0005883a 	mov	r2,zero
    4a9c:	003ff006 	br	4a60 <_gp+0xfffea6f4>

00004aa0 <_cleanup>:
    4aa0:	00800074 	movhi	r2,1
    4aa4:	1088db04 	addi	r2,r2,9068
    4aa8:	11000017 	ldw	r4,0(r2)
    4aac:	01400074 	movhi	r5,1
    4ab0:	2962dd04 	addi	r5,r5,-29836
    4ab4:	00050001 	jmpi	5000 <_fwalk_reent>

00004ab8 <__sinit>:
    4ab8:	20800e17 	ldw	r2,56(r4)
    4abc:	10000126 	beq	r2,zero,4ac4 <__sinit+0xc>
    4ac0:	f800283a 	ret
    4ac4:	000476c1 	jmpi	476c <__sinit.part.1>

00004ac8 <__sfp_lock_acquire>:
    4ac8:	f800283a 	ret

00004acc <__sfp_lock_release>:
    4acc:	f800283a 	ret

00004ad0 <__sinit_lock_acquire>:
    4ad0:	f800283a 	ret

00004ad4 <__sinit_lock_release>:
    4ad4:	f800283a 	ret

00004ad8 <__fp_lock_all>:
    4ad8:	00800074 	movhi	r2,1
    4adc:	1088dc04 	addi	r2,r2,9072
    4ae0:	11000017 	ldw	r4,0(r2)
    4ae4:	01400034 	movhi	r5,0
    4ae8:	29524204 	addi	r5,r5,18696
    4aec:	0004f3c1 	jmpi	4f3c <_fwalk>

00004af0 <__fp_unlock_all>:
    4af0:	00800074 	movhi	r2,1
    4af4:	1088dc04 	addi	r2,r2,9072
    4af8:	11000017 	ldw	r4,0(r2)
    4afc:	01400034 	movhi	r5,0
    4b00:	2951d604 	addi	r5,r5,18264
    4b04:	0004f3c1 	jmpi	4f3c <_fwalk>

00004b08 <_malloc_trim_r>:
    4b08:	defffb04 	addi	sp,sp,-20
    4b0c:	dcc00315 	stw	r19,12(sp)
    4b10:	04c00074 	movhi	r19,1
    4b14:	dc800215 	stw	r18,8(sp)
    4b18:	dc400115 	stw	r17,4(sp)
    4b1c:	dc000015 	stw	r16,0(sp)
    4b20:	dfc00415 	stw	ra,16(sp)
    4b24:	2821883a 	mov	r16,r5
    4b28:	9cc35704 	addi	r19,r19,3420
    4b2c:	2025883a 	mov	r18,r4
    4b30:	000daa00 	call	daa0 <__malloc_lock>
    4b34:	98800217 	ldw	r2,8(r19)
    4b38:	14400117 	ldw	r17,4(r2)
    4b3c:	00bfff04 	movi	r2,-4
    4b40:	88a2703a 	and	r17,r17,r2
    4b44:	8c21c83a 	sub	r16,r17,r16
    4b48:	8403fbc4 	addi	r16,r16,4079
    4b4c:	8020d33a 	srli	r16,r16,12
    4b50:	0083ffc4 	movi	r2,4095
    4b54:	843fffc4 	addi	r16,r16,-1
    4b58:	8020933a 	slli	r16,r16,12
    4b5c:	1400060e 	bge	r2,r16,4b78 <_malloc_trim_r+0x70>
    4b60:	000b883a 	mov	r5,zero
    4b64:	9009883a 	mov	r4,r18
    4b68:	0006fe80 	call	6fe8 <_sbrk_r>
    4b6c:	98c00217 	ldw	r3,8(r19)
    4b70:	1c47883a 	add	r3,r3,r17
    4b74:	10c00a26 	beq	r2,r3,4ba0 <_malloc_trim_r+0x98>
    4b78:	9009883a 	mov	r4,r18
    4b7c:	000dac40 	call	dac4 <__malloc_unlock>
    4b80:	0005883a 	mov	r2,zero
    4b84:	dfc00417 	ldw	ra,16(sp)
    4b88:	dcc00317 	ldw	r19,12(sp)
    4b8c:	dc800217 	ldw	r18,8(sp)
    4b90:	dc400117 	ldw	r17,4(sp)
    4b94:	dc000017 	ldw	r16,0(sp)
    4b98:	dec00504 	addi	sp,sp,20
    4b9c:	f800283a 	ret
    4ba0:	040bc83a 	sub	r5,zero,r16
    4ba4:	9009883a 	mov	r4,r18
    4ba8:	0006fe80 	call	6fe8 <_sbrk_r>
    4bac:	00ffffc4 	movi	r3,-1
    4bb0:	10c00d26 	beq	r2,r3,4be8 <_malloc_trim_r+0xe0>
    4bb4:	00c00074 	movhi	r3,1
    4bb8:	18cfb404 	addi	r3,r3,16080
    4bbc:	18800017 	ldw	r2,0(r3)
    4bc0:	99000217 	ldw	r4,8(r19)
    4bc4:	8c23c83a 	sub	r17,r17,r16
    4bc8:	8c400054 	ori	r17,r17,1
    4bcc:	1421c83a 	sub	r16,r2,r16
    4bd0:	24400115 	stw	r17,4(r4)
    4bd4:	9009883a 	mov	r4,r18
    4bd8:	1c000015 	stw	r16,0(r3)
    4bdc:	000dac40 	call	dac4 <__malloc_unlock>
    4be0:	00800044 	movi	r2,1
    4be4:	003fe706 	br	4b84 <_gp+0xfffea818>
    4be8:	000b883a 	mov	r5,zero
    4bec:	9009883a 	mov	r4,r18
    4bf0:	0006fe80 	call	6fe8 <_sbrk_r>
    4bf4:	99000217 	ldw	r4,8(r19)
    4bf8:	014003c4 	movi	r5,15
    4bfc:	1107c83a 	sub	r3,r2,r4
    4c00:	28ffdd0e 	bge	r5,r3,4b78 <_gp+0xfffea80c>
    4c04:	01400074 	movhi	r5,1
    4c08:	2948de04 	addi	r5,r5,9080
    4c0c:	29400017 	ldw	r5,0(r5)
    4c10:	18c00054 	ori	r3,r3,1
    4c14:	20c00115 	stw	r3,4(r4)
    4c18:	00c00074 	movhi	r3,1
    4c1c:	1145c83a 	sub	r2,r2,r5
    4c20:	18cfb404 	addi	r3,r3,16080
    4c24:	18800015 	stw	r2,0(r3)
    4c28:	003fd306 	br	4b78 <_gp+0xfffea80c>

00004c2c <_free_r>:
    4c2c:	28004126 	beq	r5,zero,4d34 <_free_r+0x108>
    4c30:	defffd04 	addi	sp,sp,-12
    4c34:	dc400115 	stw	r17,4(sp)
    4c38:	dc000015 	stw	r16,0(sp)
    4c3c:	2023883a 	mov	r17,r4
    4c40:	2821883a 	mov	r16,r5
    4c44:	dfc00215 	stw	ra,8(sp)
    4c48:	000daa00 	call	daa0 <__malloc_lock>
    4c4c:	81ffff17 	ldw	r7,-4(r16)
    4c50:	00bfff84 	movi	r2,-2
    4c54:	01000074 	movhi	r4,1
    4c58:	81bffe04 	addi	r6,r16,-8
    4c5c:	3884703a 	and	r2,r7,r2
    4c60:	21035704 	addi	r4,r4,3420
    4c64:	308b883a 	add	r5,r6,r2
    4c68:	2a400117 	ldw	r9,4(r5)
    4c6c:	22000217 	ldw	r8,8(r4)
    4c70:	00ffff04 	movi	r3,-4
    4c74:	48c6703a 	and	r3,r9,r3
    4c78:	2a005726 	beq	r5,r8,4dd8 <_free_r+0x1ac>
    4c7c:	28c00115 	stw	r3,4(r5)
    4c80:	39c0004c 	andi	r7,r7,1
    4c84:	3800091e 	bne	r7,zero,4cac <_free_r+0x80>
    4c88:	823ffe17 	ldw	r8,-8(r16)
    4c8c:	22400204 	addi	r9,r4,8
    4c90:	320dc83a 	sub	r6,r6,r8
    4c94:	31c00217 	ldw	r7,8(r6)
    4c98:	1205883a 	add	r2,r2,r8
    4c9c:	3a406526 	beq	r7,r9,4e34 <_free_r+0x208>
    4ca0:	32000317 	ldw	r8,12(r6)
    4ca4:	3a000315 	stw	r8,12(r7)
    4ca8:	41c00215 	stw	r7,8(r8)
    4cac:	28cf883a 	add	r7,r5,r3
    4cb0:	39c00117 	ldw	r7,4(r7)
    4cb4:	39c0004c 	andi	r7,r7,1
    4cb8:	38003a26 	beq	r7,zero,4da4 <_free_r+0x178>
    4cbc:	10c00054 	ori	r3,r2,1
    4cc0:	30c00115 	stw	r3,4(r6)
    4cc4:	3087883a 	add	r3,r6,r2
    4cc8:	18800015 	stw	r2,0(r3)
    4ccc:	00c07fc4 	movi	r3,511
    4cd0:	18801936 	bltu	r3,r2,4d38 <_free_r+0x10c>
    4cd4:	1004d0fa 	srli	r2,r2,3
    4cd8:	01c00044 	movi	r7,1
    4cdc:	21400117 	ldw	r5,4(r4)
    4ce0:	10c00044 	addi	r3,r2,1
    4ce4:	18c7883a 	add	r3,r3,r3
    4ce8:	1005d0ba 	srai	r2,r2,2
    4cec:	18c7883a 	add	r3,r3,r3
    4cf0:	18c7883a 	add	r3,r3,r3
    4cf4:	1907883a 	add	r3,r3,r4
    4cf8:	3884983a 	sll	r2,r7,r2
    4cfc:	19c00017 	ldw	r7,0(r3)
    4d00:	1a3ffe04 	addi	r8,r3,-8
    4d04:	1144b03a 	or	r2,r2,r5
    4d08:	32000315 	stw	r8,12(r6)
    4d0c:	31c00215 	stw	r7,8(r6)
    4d10:	20800115 	stw	r2,4(r4)
    4d14:	19800015 	stw	r6,0(r3)
    4d18:	39800315 	stw	r6,12(r7)
    4d1c:	8809883a 	mov	r4,r17
    4d20:	dfc00217 	ldw	ra,8(sp)
    4d24:	dc400117 	ldw	r17,4(sp)
    4d28:	dc000017 	ldw	r16,0(sp)
    4d2c:	dec00304 	addi	sp,sp,12
    4d30:	000dac41 	jmpi	dac4 <__malloc_unlock>
    4d34:	f800283a 	ret
    4d38:	100ad27a 	srli	r5,r2,9
    4d3c:	00c00104 	movi	r3,4
    4d40:	19404a36 	bltu	r3,r5,4e6c <_free_r+0x240>
    4d44:	100ad1ba 	srli	r5,r2,6
    4d48:	28c00e44 	addi	r3,r5,57
    4d4c:	18c7883a 	add	r3,r3,r3
    4d50:	29400e04 	addi	r5,r5,56
    4d54:	18c7883a 	add	r3,r3,r3
    4d58:	18c7883a 	add	r3,r3,r3
    4d5c:	1909883a 	add	r4,r3,r4
    4d60:	20c00017 	ldw	r3,0(r4)
    4d64:	01c00074 	movhi	r7,1
    4d68:	213ffe04 	addi	r4,r4,-8
    4d6c:	39c35704 	addi	r7,r7,3420
    4d70:	20c04426 	beq	r4,r3,4e84 <_free_r+0x258>
    4d74:	01ffff04 	movi	r7,-4
    4d78:	19400117 	ldw	r5,4(r3)
    4d7c:	29ca703a 	and	r5,r5,r7
    4d80:	1140022e 	bgeu	r2,r5,4d8c <_free_r+0x160>
    4d84:	18c00217 	ldw	r3,8(r3)
    4d88:	20fffb1e 	bne	r4,r3,4d78 <_gp+0xfffeaa0c>
    4d8c:	19000317 	ldw	r4,12(r3)
    4d90:	31000315 	stw	r4,12(r6)
    4d94:	30c00215 	stw	r3,8(r6)
    4d98:	21800215 	stw	r6,8(r4)
    4d9c:	19800315 	stw	r6,12(r3)
    4da0:	003fde06 	br	4d1c <_gp+0xfffea9b0>
    4da4:	29c00217 	ldw	r7,8(r5)
    4da8:	10c5883a 	add	r2,r2,r3
    4dac:	00c00074 	movhi	r3,1
    4db0:	18c35904 	addi	r3,r3,3428
    4db4:	38c03b26 	beq	r7,r3,4ea4 <_free_r+0x278>
    4db8:	2a000317 	ldw	r8,12(r5)
    4dbc:	11400054 	ori	r5,r2,1
    4dc0:	3087883a 	add	r3,r6,r2
    4dc4:	3a000315 	stw	r8,12(r7)
    4dc8:	41c00215 	stw	r7,8(r8)
    4dcc:	31400115 	stw	r5,4(r6)
    4dd0:	18800015 	stw	r2,0(r3)
    4dd4:	003fbd06 	br	4ccc <_gp+0xfffea960>
    4dd8:	39c0004c 	andi	r7,r7,1
    4ddc:	10c5883a 	add	r2,r2,r3
    4de0:	3800071e 	bne	r7,zero,4e00 <_free_r+0x1d4>
    4de4:	81fffe17 	ldw	r7,-8(r16)
    4de8:	31cdc83a 	sub	r6,r6,r7
    4dec:	30c00317 	ldw	r3,12(r6)
    4df0:	31400217 	ldw	r5,8(r6)
    4df4:	11c5883a 	add	r2,r2,r7
    4df8:	28c00315 	stw	r3,12(r5)
    4dfc:	19400215 	stw	r5,8(r3)
    4e00:	10c00054 	ori	r3,r2,1
    4e04:	30c00115 	stw	r3,4(r6)
    4e08:	00c00074 	movhi	r3,1
    4e0c:	18c8df04 	addi	r3,r3,9084
    4e10:	18c00017 	ldw	r3,0(r3)
    4e14:	21800215 	stw	r6,8(r4)
    4e18:	10ffc036 	bltu	r2,r3,4d1c <_gp+0xfffea9b0>
    4e1c:	00800074 	movhi	r2,1
    4e20:	108fab04 	addi	r2,r2,16044
    4e24:	11400017 	ldw	r5,0(r2)
    4e28:	8809883a 	mov	r4,r17
    4e2c:	0004b080 	call	4b08 <_malloc_trim_r>
    4e30:	003fba06 	br	4d1c <_gp+0xfffea9b0>
    4e34:	28c9883a 	add	r4,r5,r3
    4e38:	21000117 	ldw	r4,4(r4)
    4e3c:	2100004c 	andi	r4,r4,1
    4e40:	2000391e 	bne	r4,zero,4f28 <_free_r+0x2fc>
    4e44:	29c00217 	ldw	r7,8(r5)
    4e48:	29000317 	ldw	r4,12(r5)
    4e4c:	1885883a 	add	r2,r3,r2
    4e50:	10c00054 	ori	r3,r2,1
    4e54:	39000315 	stw	r4,12(r7)
    4e58:	21c00215 	stw	r7,8(r4)
    4e5c:	30c00115 	stw	r3,4(r6)
    4e60:	308d883a 	add	r6,r6,r2
    4e64:	30800015 	stw	r2,0(r6)
    4e68:	003fac06 	br	4d1c <_gp+0xfffea9b0>
    4e6c:	00c00504 	movi	r3,20
    4e70:	19401536 	bltu	r3,r5,4ec8 <_free_r+0x29c>
    4e74:	28c01704 	addi	r3,r5,92
    4e78:	18c7883a 	add	r3,r3,r3
    4e7c:	294016c4 	addi	r5,r5,91
    4e80:	003fb406 	br	4d54 <_gp+0xfffea9e8>
    4e84:	280bd0ba 	srai	r5,r5,2
    4e88:	00c00044 	movi	r3,1
    4e8c:	38800117 	ldw	r2,4(r7)
    4e90:	194a983a 	sll	r5,r3,r5
    4e94:	2007883a 	mov	r3,r4
    4e98:	2884b03a 	or	r2,r5,r2
    4e9c:	38800115 	stw	r2,4(r7)
    4ea0:	003fbb06 	br	4d90 <_gp+0xfffeaa24>
    4ea4:	21800515 	stw	r6,20(r4)
    4ea8:	21800415 	stw	r6,16(r4)
    4eac:	10c00054 	ori	r3,r2,1
    4eb0:	31c00315 	stw	r7,12(r6)
    4eb4:	31c00215 	stw	r7,8(r6)
    4eb8:	30c00115 	stw	r3,4(r6)
    4ebc:	308d883a 	add	r6,r6,r2
    4ec0:	30800015 	stw	r2,0(r6)
    4ec4:	003f9506 	br	4d1c <_gp+0xfffea9b0>
    4ec8:	00c01504 	movi	r3,84
    4ecc:	19400536 	bltu	r3,r5,4ee4 <_free_r+0x2b8>
    4ed0:	100ad33a 	srli	r5,r2,12
    4ed4:	28c01bc4 	addi	r3,r5,111
    4ed8:	18c7883a 	add	r3,r3,r3
    4edc:	29401b84 	addi	r5,r5,110
    4ee0:	003f9c06 	br	4d54 <_gp+0xfffea9e8>
    4ee4:	00c05504 	movi	r3,340
    4ee8:	19400536 	bltu	r3,r5,4f00 <_free_r+0x2d4>
    4eec:	100ad3fa 	srli	r5,r2,15
    4ef0:	28c01e04 	addi	r3,r5,120
    4ef4:	18c7883a 	add	r3,r3,r3
    4ef8:	29401dc4 	addi	r5,r5,119
    4efc:	003f9506 	br	4d54 <_gp+0xfffea9e8>
    4f00:	00c15504 	movi	r3,1364
    4f04:	19400536 	bltu	r3,r5,4f1c <_free_r+0x2f0>
    4f08:	100ad4ba 	srli	r5,r2,18
    4f0c:	28c01f44 	addi	r3,r5,125
    4f10:	18c7883a 	add	r3,r3,r3
    4f14:	29401f04 	addi	r5,r5,124
    4f18:	003f8e06 	br	4d54 <_gp+0xfffea9e8>
    4f1c:	00c03f84 	movi	r3,254
    4f20:	01401f84 	movi	r5,126
    4f24:	003f8b06 	br	4d54 <_gp+0xfffea9e8>
    4f28:	10c00054 	ori	r3,r2,1
    4f2c:	30c00115 	stw	r3,4(r6)
    4f30:	308d883a 	add	r6,r6,r2
    4f34:	30800015 	stw	r2,0(r6)
    4f38:	003f7806 	br	4d1c <_gp+0xfffea9b0>

00004f3c <_fwalk>:
    4f3c:	defff704 	addi	sp,sp,-36
    4f40:	dd000415 	stw	r20,16(sp)
    4f44:	dfc00815 	stw	ra,32(sp)
    4f48:	ddc00715 	stw	r23,28(sp)
    4f4c:	dd800615 	stw	r22,24(sp)
    4f50:	dd400515 	stw	r21,20(sp)
    4f54:	dcc00315 	stw	r19,12(sp)
    4f58:	dc800215 	stw	r18,8(sp)
    4f5c:	dc400115 	stw	r17,4(sp)
    4f60:	dc000015 	stw	r16,0(sp)
    4f64:	2500b804 	addi	r20,r4,736
    4f68:	a0002326 	beq	r20,zero,4ff8 <_fwalk+0xbc>
    4f6c:	282b883a 	mov	r21,r5
    4f70:	002f883a 	mov	r23,zero
    4f74:	05800044 	movi	r22,1
    4f78:	04ffffc4 	movi	r19,-1
    4f7c:	a4400117 	ldw	r17,4(r20)
    4f80:	a4800217 	ldw	r18,8(r20)
    4f84:	8c7fffc4 	addi	r17,r17,-1
    4f88:	88000d16 	blt	r17,zero,4fc0 <_fwalk+0x84>
    4f8c:	94000304 	addi	r16,r18,12
    4f90:	94800384 	addi	r18,r18,14
    4f94:	8080000b 	ldhu	r2,0(r16)
    4f98:	8c7fffc4 	addi	r17,r17,-1
    4f9c:	813ffd04 	addi	r4,r16,-12
    4fa0:	b080042e 	bgeu	r22,r2,4fb4 <_fwalk+0x78>
    4fa4:	9080000f 	ldh	r2,0(r18)
    4fa8:	14c00226 	beq	r2,r19,4fb4 <_fwalk+0x78>
    4fac:	a83ee83a 	callr	r21
    4fb0:	b8aeb03a 	or	r23,r23,r2
    4fb4:	84001a04 	addi	r16,r16,104
    4fb8:	94801a04 	addi	r18,r18,104
    4fbc:	8cfff51e 	bne	r17,r19,4f94 <_gp+0xfffeac28>
    4fc0:	a5000017 	ldw	r20,0(r20)
    4fc4:	a03fed1e 	bne	r20,zero,4f7c <_gp+0xfffeac10>
    4fc8:	b805883a 	mov	r2,r23
    4fcc:	dfc00817 	ldw	ra,32(sp)
    4fd0:	ddc00717 	ldw	r23,28(sp)
    4fd4:	dd800617 	ldw	r22,24(sp)
    4fd8:	dd400517 	ldw	r21,20(sp)
    4fdc:	dd000417 	ldw	r20,16(sp)
    4fe0:	dcc00317 	ldw	r19,12(sp)
    4fe4:	dc800217 	ldw	r18,8(sp)
    4fe8:	dc400117 	ldw	r17,4(sp)
    4fec:	dc000017 	ldw	r16,0(sp)
    4ff0:	dec00904 	addi	sp,sp,36
    4ff4:	f800283a 	ret
    4ff8:	002f883a 	mov	r23,zero
    4ffc:	003ff206 	br	4fc8 <_gp+0xfffeac5c>

00005000 <_fwalk_reent>:
    5000:	defff704 	addi	sp,sp,-36
    5004:	dd000415 	stw	r20,16(sp)
    5008:	dfc00815 	stw	ra,32(sp)
    500c:	ddc00715 	stw	r23,28(sp)
    5010:	dd800615 	stw	r22,24(sp)
    5014:	dd400515 	stw	r21,20(sp)
    5018:	dcc00315 	stw	r19,12(sp)
    501c:	dc800215 	stw	r18,8(sp)
    5020:	dc400115 	stw	r17,4(sp)
    5024:	dc000015 	stw	r16,0(sp)
    5028:	2500b804 	addi	r20,r4,736
    502c:	a0002326 	beq	r20,zero,50bc <_fwalk_reent+0xbc>
    5030:	282b883a 	mov	r21,r5
    5034:	2027883a 	mov	r19,r4
    5038:	002f883a 	mov	r23,zero
    503c:	05800044 	movi	r22,1
    5040:	04bfffc4 	movi	r18,-1
    5044:	a4400117 	ldw	r17,4(r20)
    5048:	a4000217 	ldw	r16,8(r20)
    504c:	8c7fffc4 	addi	r17,r17,-1
    5050:	88000c16 	blt	r17,zero,5084 <_fwalk_reent+0x84>
    5054:	84000304 	addi	r16,r16,12
    5058:	8080000b 	ldhu	r2,0(r16)
    505c:	8c7fffc4 	addi	r17,r17,-1
    5060:	817ffd04 	addi	r5,r16,-12
    5064:	b080052e 	bgeu	r22,r2,507c <_fwalk_reent+0x7c>
    5068:	8080008f 	ldh	r2,2(r16)
    506c:	9809883a 	mov	r4,r19
    5070:	14800226 	beq	r2,r18,507c <_fwalk_reent+0x7c>
    5074:	a83ee83a 	callr	r21
    5078:	b8aeb03a 	or	r23,r23,r2
    507c:	84001a04 	addi	r16,r16,104
    5080:	8cbff51e 	bne	r17,r18,5058 <_gp+0xfffeacec>
    5084:	a5000017 	ldw	r20,0(r20)
    5088:	a03fee1e 	bne	r20,zero,5044 <_gp+0xfffeacd8>
    508c:	b805883a 	mov	r2,r23
    5090:	dfc00817 	ldw	ra,32(sp)
    5094:	ddc00717 	ldw	r23,28(sp)
    5098:	dd800617 	ldw	r22,24(sp)
    509c:	dd400517 	ldw	r21,20(sp)
    50a0:	dd000417 	ldw	r20,16(sp)
    50a4:	dcc00317 	ldw	r19,12(sp)
    50a8:	dc800217 	ldw	r18,8(sp)
    50ac:	dc400117 	ldw	r17,4(sp)
    50b0:	dc000017 	ldw	r16,0(sp)
    50b4:	dec00904 	addi	sp,sp,36
    50b8:	f800283a 	ret
    50bc:	002f883a 	mov	r23,zero
    50c0:	003ff206 	br	508c <_gp+0xfffead20>

000050c4 <_setlocale_r>:
    50c4:	30001b26 	beq	r6,zero,5134 <_setlocale_r+0x70>
    50c8:	01400074 	movhi	r5,1
    50cc:	defffe04 	addi	sp,sp,-8
    50d0:	29419104 	addi	r5,r5,1604
    50d4:	3009883a 	mov	r4,r6
    50d8:	dc000015 	stw	r16,0(sp)
    50dc:	dfc00115 	stw	ra,4(sp)
    50e0:	3021883a 	mov	r16,r6
    50e4:	00071780 	call	7178 <strcmp>
    50e8:	1000061e 	bne	r2,zero,5104 <_setlocale_r+0x40>
    50ec:	00800074 	movhi	r2,1
    50f0:	10819004 	addi	r2,r2,1600
    50f4:	dfc00117 	ldw	ra,4(sp)
    50f8:	dc000017 	ldw	r16,0(sp)
    50fc:	dec00204 	addi	sp,sp,8
    5100:	f800283a 	ret
    5104:	01400074 	movhi	r5,1
    5108:	29419004 	addi	r5,r5,1600
    510c:	8009883a 	mov	r4,r16
    5110:	00071780 	call	7178 <strcmp>
    5114:	103ff526 	beq	r2,zero,50ec <_gp+0xfffead80>
    5118:	01400074 	movhi	r5,1
    511c:	29417b04 	addi	r5,r5,1516
    5120:	8009883a 	mov	r4,r16
    5124:	00071780 	call	7178 <strcmp>
    5128:	103ff026 	beq	r2,zero,50ec <_gp+0xfffead80>
    512c:	0005883a 	mov	r2,zero
    5130:	003ff006 	br	50f4 <_gp+0xfffead88>
    5134:	00800074 	movhi	r2,1
    5138:	10819004 	addi	r2,r2,1600
    513c:	f800283a 	ret

00005140 <__locale_charset>:
    5140:	00800074 	movhi	r2,1
    5144:	10834104 	addi	r2,r2,3332
    5148:	f800283a 	ret

0000514c <__locale_mb_cur_max>:
    514c:	00800074 	movhi	r2,1
    5150:	1088dd04 	addi	r2,r2,9076
    5154:	10800017 	ldw	r2,0(r2)
    5158:	f800283a 	ret

0000515c <__locale_msgcharset>:
    515c:	00800074 	movhi	r2,1
    5160:	10833904 	addi	r2,r2,3300
    5164:	f800283a 	ret

00005168 <__locale_cjk_lang>:
    5168:	0005883a 	mov	r2,zero
    516c:	f800283a 	ret

00005170 <_localeconv_r>:
    5170:	00800074 	movhi	r2,1
    5174:	10834904 	addi	r2,r2,3364
    5178:	f800283a 	ret

0000517c <setlocale>:
    517c:	00800074 	movhi	r2,1
    5180:	1088dc04 	addi	r2,r2,9072
    5184:	280d883a 	mov	r6,r5
    5188:	200b883a 	mov	r5,r4
    518c:	11000017 	ldw	r4,0(r2)
    5190:	00050c41 	jmpi	50c4 <_setlocale_r>

00005194 <localeconv>:
    5194:	00800074 	movhi	r2,1
    5198:	10834904 	addi	r2,r2,3364
    519c:	f800283a 	ret

000051a0 <__smakebuf_r>:
    51a0:	2880030b 	ldhu	r2,12(r5)
    51a4:	10c0008c 	andi	r3,r2,2
    51a8:	1800411e 	bne	r3,zero,52b0 <__smakebuf_r+0x110>
    51ac:	deffec04 	addi	sp,sp,-80
    51b0:	dc000f15 	stw	r16,60(sp)
    51b4:	2821883a 	mov	r16,r5
    51b8:	2940038f 	ldh	r5,14(r5)
    51bc:	dc401015 	stw	r17,64(sp)
    51c0:	dfc01315 	stw	ra,76(sp)
    51c4:	dcc01215 	stw	r19,72(sp)
    51c8:	dc801115 	stw	r18,68(sp)
    51cc:	2023883a 	mov	r17,r4
    51d0:	28001c16 	blt	r5,zero,5244 <__smakebuf_r+0xa4>
    51d4:	d80d883a 	mov	r6,sp
    51d8:	0008e800 	call	8e80 <_fstat_r>
    51dc:	10001816 	blt	r2,zero,5240 <__smakebuf_r+0xa0>
    51e0:	d8800117 	ldw	r2,4(sp)
    51e4:	00e00014 	movui	r3,32768
    51e8:	10bc000c 	andi	r2,r2,61440
    51ec:	14c80020 	cmpeqi	r19,r2,8192
    51f0:	10c03726 	beq	r2,r3,52d0 <__smakebuf_r+0x130>
    51f4:	80c0030b 	ldhu	r3,12(r16)
    51f8:	18c20014 	ori	r3,r3,2048
    51fc:	80c0030d 	sth	r3,12(r16)
    5200:	00c80004 	movi	r3,8192
    5204:	10c0521e 	bne	r2,r3,5350 <__smakebuf_r+0x1b0>
    5208:	8140038f 	ldh	r5,14(r16)
    520c:	8809883a 	mov	r4,r17
    5210:	00093a40 	call	93a4 <_isatty_r>
    5214:	10004c26 	beq	r2,zero,5348 <__smakebuf_r+0x1a8>
    5218:	8080030b 	ldhu	r2,12(r16)
    521c:	80c010c4 	addi	r3,r16,67
    5220:	80c00015 	stw	r3,0(r16)
    5224:	10800054 	ori	r2,r2,1
    5228:	8080030d 	sth	r2,12(r16)
    522c:	00800044 	movi	r2,1
    5230:	80c00415 	stw	r3,16(r16)
    5234:	80800515 	stw	r2,20(r16)
    5238:	04810004 	movi	r18,1024
    523c:	00000706 	br	525c <__smakebuf_r+0xbc>
    5240:	8080030b 	ldhu	r2,12(r16)
    5244:	10c0200c 	andi	r3,r2,128
    5248:	18001f1e 	bne	r3,zero,52c8 <__smakebuf_r+0x128>
    524c:	04810004 	movi	r18,1024
    5250:	10820014 	ori	r2,r2,2048
    5254:	8080030d 	sth	r2,12(r16)
    5258:	0027883a 	mov	r19,zero
    525c:	900b883a 	mov	r5,r18
    5260:	8809883a 	mov	r4,r17
    5264:	000535c0 	call	535c <_malloc_r>
    5268:	10002c26 	beq	r2,zero,531c <__smakebuf_r+0x17c>
    526c:	80c0030b 	ldhu	r3,12(r16)
    5270:	01000034 	movhi	r4,0
    5274:	2111d804 	addi	r4,r4,18272
    5278:	89000f15 	stw	r4,60(r17)
    527c:	18c02014 	ori	r3,r3,128
    5280:	80c0030d 	sth	r3,12(r16)
    5284:	80800015 	stw	r2,0(r16)
    5288:	80800415 	stw	r2,16(r16)
    528c:	84800515 	stw	r18,20(r16)
    5290:	98001a1e 	bne	r19,zero,52fc <__smakebuf_r+0x15c>
    5294:	dfc01317 	ldw	ra,76(sp)
    5298:	dcc01217 	ldw	r19,72(sp)
    529c:	dc801117 	ldw	r18,68(sp)
    52a0:	dc401017 	ldw	r17,64(sp)
    52a4:	dc000f17 	ldw	r16,60(sp)
    52a8:	dec01404 	addi	sp,sp,80
    52ac:	f800283a 	ret
    52b0:	288010c4 	addi	r2,r5,67
    52b4:	28800015 	stw	r2,0(r5)
    52b8:	28800415 	stw	r2,16(r5)
    52bc:	00800044 	movi	r2,1
    52c0:	28800515 	stw	r2,20(r5)
    52c4:	f800283a 	ret
    52c8:	04801004 	movi	r18,64
    52cc:	003fe006 	br	5250 <_gp+0xfffeaee4>
    52d0:	81000a17 	ldw	r4,40(r16)
    52d4:	00c00034 	movhi	r3,0
    52d8:	18dc4504 	addi	r3,r3,28948
    52dc:	20ffc51e 	bne	r4,r3,51f4 <_gp+0xfffeae88>
    52e0:	8080030b 	ldhu	r2,12(r16)
    52e4:	04810004 	movi	r18,1024
    52e8:	84801315 	stw	r18,76(r16)
    52ec:	1484b03a 	or	r2,r2,r18
    52f0:	8080030d 	sth	r2,12(r16)
    52f4:	0027883a 	mov	r19,zero
    52f8:	003fd806 	br	525c <_gp+0xfffeaef0>
    52fc:	8140038f 	ldh	r5,14(r16)
    5300:	8809883a 	mov	r4,r17
    5304:	00093a40 	call	93a4 <_isatty_r>
    5308:	103fe226 	beq	r2,zero,5294 <_gp+0xfffeaf28>
    530c:	8080030b 	ldhu	r2,12(r16)
    5310:	10800054 	ori	r2,r2,1
    5314:	8080030d 	sth	r2,12(r16)
    5318:	003fde06 	br	5294 <_gp+0xfffeaf28>
    531c:	8080030b 	ldhu	r2,12(r16)
    5320:	10c0800c 	andi	r3,r2,512
    5324:	183fdb1e 	bne	r3,zero,5294 <_gp+0xfffeaf28>
    5328:	10800094 	ori	r2,r2,2
    532c:	80c010c4 	addi	r3,r16,67
    5330:	8080030d 	sth	r2,12(r16)
    5334:	00800044 	movi	r2,1
    5338:	80c00015 	stw	r3,0(r16)
    533c:	80c00415 	stw	r3,16(r16)
    5340:	80800515 	stw	r2,20(r16)
    5344:	003fd306 	br	5294 <_gp+0xfffeaf28>
    5348:	04810004 	movi	r18,1024
    534c:	003fc306 	br	525c <_gp+0xfffeaef0>
    5350:	0027883a 	mov	r19,zero
    5354:	04810004 	movi	r18,1024
    5358:	003fc006 	br	525c <_gp+0xfffeaef0>

0000535c <_malloc_r>:
    535c:	defff504 	addi	sp,sp,-44
    5360:	dc800315 	stw	r18,12(sp)
    5364:	dfc00a15 	stw	ra,40(sp)
    5368:	df000915 	stw	fp,36(sp)
    536c:	ddc00815 	stw	r23,32(sp)
    5370:	dd800715 	stw	r22,28(sp)
    5374:	dd400615 	stw	r21,24(sp)
    5378:	dd000515 	stw	r20,20(sp)
    537c:	dcc00415 	stw	r19,16(sp)
    5380:	dc400215 	stw	r17,8(sp)
    5384:	dc000115 	stw	r16,4(sp)
    5388:	288002c4 	addi	r2,r5,11
    538c:	00c00584 	movi	r3,22
    5390:	2025883a 	mov	r18,r4
    5394:	18807f2e 	bgeu	r3,r2,5594 <_malloc_r+0x238>
    5398:	047ffe04 	movi	r17,-8
    539c:	1462703a 	and	r17,r2,r17
    53a0:	8800a316 	blt	r17,zero,5630 <_malloc_r+0x2d4>
    53a4:	8940a236 	bltu	r17,r5,5630 <_malloc_r+0x2d4>
    53a8:	000daa00 	call	daa0 <__malloc_lock>
    53ac:	00807dc4 	movi	r2,503
    53b0:	1441e92e 	bgeu	r2,r17,5b58 <_malloc_r+0x7fc>
    53b4:	8804d27a 	srli	r2,r17,9
    53b8:	1000a126 	beq	r2,zero,5640 <_malloc_r+0x2e4>
    53bc:	00c00104 	movi	r3,4
    53c0:	18811e36 	bltu	r3,r2,583c <_malloc_r+0x4e0>
    53c4:	8804d1ba 	srli	r2,r17,6
    53c8:	12000e44 	addi	r8,r2,57
    53cc:	11c00e04 	addi	r7,r2,56
    53d0:	4209883a 	add	r4,r8,r8
    53d4:	04c00074 	movhi	r19,1
    53d8:	2109883a 	add	r4,r4,r4
    53dc:	9cc35704 	addi	r19,r19,3420
    53e0:	2109883a 	add	r4,r4,r4
    53e4:	9909883a 	add	r4,r19,r4
    53e8:	24000117 	ldw	r16,4(r4)
    53ec:	213ffe04 	addi	r4,r4,-8
    53f0:	24009726 	beq	r4,r16,5650 <_malloc_r+0x2f4>
    53f4:	80800117 	ldw	r2,4(r16)
    53f8:	01bfff04 	movi	r6,-4
    53fc:	014003c4 	movi	r5,15
    5400:	1184703a 	and	r2,r2,r6
    5404:	1447c83a 	sub	r3,r2,r17
    5408:	28c00716 	blt	r5,r3,5428 <_malloc_r+0xcc>
    540c:	1800920e 	bge	r3,zero,5658 <_malloc_r+0x2fc>
    5410:	84000317 	ldw	r16,12(r16)
    5414:	24008e26 	beq	r4,r16,5650 <_malloc_r+0x2f4>
    5418:	80800117 	ldw	r2,4(r16)
    541c:	1184703a 	and	r2,r2,r6
    5420:	1447c83a 	sub	r3,r2,r17
    5424:	28fff90e 	bge	r5,r3,540c <_gp+0xfffeb0a0>
    5428:	3809883a 	mov	r4,r7
    542c:	01800074 	movhi	r6,1
    5430:	9c000417 	ldw	r16,16(r19)
    5434:	31835704 	addi	r6,r6,3420
    5438:	32000204 	addi	r8,r6,8
    543c:	82013426 	beq	r16,r8,5910 <_malloc_r+0x5b4>
    5440:	80c00117 	ldw	r3,4(r16)
    5444:	00bfff04 	movi	r2,-4
    5448:	188e703a 	and	r7,r3,r2
    544c:	3c45c83a 	sub	r2,r7,r17
    5450:	00c003c4 	movi	r3,15
    5454:	18811f16 	blt	r3,r2,58d4 <_malloc_r+0x578>
    5458:	32000515 	stw	r8,20(r6)
    545c:	32000415 	stw	r8,16(r6)
    5460:	10007f0e 	bge	r2,zero,5660 <_malloc_r+0x304>
    5464:	00807fc4 	movi	r2,511
    5468:	11c0fd36 	bltu	r2,r7,5860 <_malloc_r+0x504>
    546c:	3806d0fa 	srli	r3,r7,3
    5470:	01c00044 	movi	r7,1
    5474:	30800117 	ldw	r2,4(r6)
    5478:	19400044 	addi	r5,r3,1
    547c:	294b883a 	add	r5,r5,r5
    5480:	1807d0ba 	srai	r3,r3,2
    5484:	294b883a 	add	r5,r5,r5
    5488:	294b883a 	add	r5,r5,r5
    548c:	298b883a 	add	r5,r5,r6
    5490:	38c6983a 	sll	r3,r7,r3
    5494:	29c00017 	ldw	r7,0(r5)
    5498:	2a7ffe04 	addi	r9,r5,-8
    549c:	1886b03a 	or	r3,r3,r2
    54a0:	82400315 	stw	r9,12(r16)
    54a4:	81c00215 	stw	r7,8(r16)
    54a8:	30c00115 	stw	r3,4(r6)
    54ac:	2c000015 	stw	r16,0(r5)
    54b0:	3c000315 	stw	r16,12(r7)
    54b4:	2005d0ba 	srai	r2,r4,2
    54b8:	01400044 	movi	r5,1
    54bc:	288a983a 	sll	r5,r5,r2
    54c0:	19406f36 	bltu	r3,r5,5680 <_malloc_r+0x324>
    54c4:	28c4703a 	and	r2,r5,r3
    54c8:	10000a1e 	bne	r2,zero,54f4 <_malloc_r+0x198>
    54cc:	00bfff04 	movi	r2,-4
    54d0:	294b883a 	add	r5,r5,r5
    54d4:	2088703a 	and	r4,r4,r2
    54d8:	28c4703a 	and	r2,r5,r3
    54dc:	21000104 	addi	r4,r4,4
    54e0:	1000041e 	bne	r2,zero,54f4 <_malloc_r+0x198>
    54e4:	294b883a 	add	r5,r5,r5
    54e8:	28c4703a 	and	r2,r5,r3
    54ec:	21000104 	addi	r4,r4,4
    54f0:	103ffc26 	beq	r2,zero,54e4 <_gp+0xfffeb178>
    54f4:	02bfff04 	movi	r10,-4
    54f8:	024003c4 	movi	r9,15
    54fc:	21800044 	addi	r6,r4,1
    5500:	318d883a 	add	r6,r6,r6
    5504:	318d883a 	add	r6,r6,r6
    5508:	318d883a 	add	r6,r6,r6
    550c:	998d883a 	add	r6,r19,r6
    5510:	333ffe04 	addi	r12,r6,-8
    5514:	2017883a 	mov	r11,r4
    5518:	31800104 	addi	r6,r6,4
    551c:	34000017 	ldw	r16,0(r6)
    5520:	31fffd04 	addi	r7,r6,-12
    5524:	81c0041e 	bne	r16,r7,5538 <_malloc_r+0x1dc>
    5528:	0000fb06 	br	5918 <_malloc_r+0x5bc>
    552c:	1801030e 	bge	r3,zero,593c <_malloc_r+0x5e0>
    5530:	84000317 	ldw	r16,12(r16)
    5534:	81c0f826 	beq	r16,r7,5918 <_malloc_r+0x5bc>
    5538:	80800117 	ldw	r2,4(r16)
    553c:	1284703a 	and	r2,r2,r10
    5540:	1447c83a 	sub	r3,r2,r17
    5544:	48fff90e 	bge	r9,r3,552c <_gp+0xfffeb1c0>
    5548:	80800317 	ldw	r2,12(r16)
    554c:	81000217 	ldw	r4,8(r16)
    5550:	89400054 	ori	r5,r17,1
    5554:	81400115 	stw	r5,4(r16)
    5558:	20800315 	stw	r2,12(r4)
    555c:	11000215 	stw	r4,8(r2)
    5560:	8463883a 	add	r17,r16,r17
    5564:	9c400515 	stw	r17,20(r19)
    5568:	9c400415 	stw	r17,16(r19)
    556c:	18800054 	ori	r2,r3,1
    5570:	88800115 	stw	r2,4(r17)
    5574:	8a000315 	stw	r8,12(r17)
    5578:	8a000215 	stw	r8,8(r17)
    557c:	88e3883a 	add	r17,r17,r3
    5580:	88c00015 	stw	r3,0(r17)
    5584:	9009883a 	mov	r4,r18
    5588:	000dac40 	call	dac4 <__malloc_unlock>
    558c:	80800204 	addi	r2,r16,8
    5590:	00001b06 	br	5600 <_malloc_r+0x2a4>
    5594:	04400404 	movi	r17,16
    5598:	89402536 	bltu	r17,r5,5630 <_malloc_r+0x2d4>
    559c:	000daa00 	call	daa0 <__malloc_lock>
    55a0:	00800184 	movi	r2,6
    55a4:	01000084 	movi	r4,2
    55a8:	04c00074 	movhi	r19,1
    55ac:	1085883a 	add	r2,r2,r2
    55b0:	9cc35704 	addi	r19,r19,3420
    55b4:	1085883a 	add	r2,r2,r2
    55b8:	9885883a 	add	r2,r19,r2
    55bc:	14000117 	ldw	r16,4(r2)
    55c0:	10fffe04 	addi	r3,r2,-8
    55c4:	80c0d926 	beq	r16,r3,592c <_malloc_r+0x5d0>
    55c8:	80c00117 	ldw	r3,4(r16)
    55cc:	81000317 	ldw	r4,12(r16)
    55d0:	00bfff04 	movi	r2,-4
    55d4:	1884703a 	and	r2,r3,r2
    55d8:	81400217 	ldw	r5,8(r16)
    55dc:	8085883a 	add	r2,r16,r2
    55e0:	10c00117 	ldw	r3,4(r2)
    55e4:	29000315 	stw	r4,12(r5)
    55e8:	21400215 	stw	r5,8(r4)
    55ec:	18c00054 	ori	r3,r3,1
    55f0:	10c00115 	stw	r3,4(r2)
    55f4:	9009883a 	mov	r4,r18
    55f8:	000dac40 	call	dac4 <__malloc_unlock>
    55fc:	80800204 	addi	r2,r16,8
    5600:	dfc00a17 	ldw	ra,40(sp)
    5604:	df000917 	ldw	fp,36(sp)
    5608:	ddc00817 	ldw	r23,32(sp)
    560c:	dd800717 	ldw	r22,28(sp)
    5610:	dd400617 	ldw	r21,24(sp)
    5614:	dd000517 	ldw	r20,20(sp)
    5618:	dcc00417 	ldw	r19,16(sp)
    561c:	dc800317 	ldw	r18,12(sp)
    5620:	dc400217 	ldw	r17,8(sp)
    5624:	dc000117 	ldw	r16,4(sp)
    5628:	dec00b04 	addi	sp,sp,44
    562c:	f800283a 	ret
    5630:	00800304 	movi	r2,12
    5634:	90800015 	stw	r2,0(r18)
    5638:	0005883a 	mov	r2,zero
    563c:	003ff006 	br	5600 <_gp+0xfffeb294>
    5640:	01002004 	movi	r4,128
    5644:	02001004 	movi	r8,64
    5648:	01c00fc4 	movi	r7,63
    564c:	003f6106 	br	53d4 <_gp+0xfffeb068>
    5650:	4009883a 	mov	r4,r8
    5654:	003f7506 	br	542c <_gp+0xfffeb0c0>
    5658:	81000317 	ldw	r4,12(r16)
    565c:	003fde06 	br	55d8 <_gp+0xfffeb26c>
    5660:	81c5883a 	add	r2,r16,r7
    5664:	11400117 	ldw	r5,4(r2)
    5668:	9009883a 	mov	r4,r18
    566c:	29400054 	ori	r5,r5,1
    5670:	11400115 	stw	r5,4(r2)
    5674:	000dac40 	call	dac4 <__malloc_unlock>
    5678:	80800204 	addi	r2,r16,8
    567c:	003fe006 	br	5600 <_gp+0xfffeb294>
    5680:	9c000217 	ldw	r16,8(r19)
    5684:	00bfff04 	movi	r2,-4
    5688:	85800117 	ldw	r22,4(r16)
    568c:	b0ac703a 	and	r22,r22,r2
    5690:	b4400336 	bltu	r22,r17,56a0 <_malloc_r+0x344>
    5694:	b445c83a 	sub	r2,r22,r17
    5698:	00c003c4 	movi	r3,15
    569c:	18805d16 	blt	r3,r2,5814 <_malloc_r+0x4b8>
    56a0:	05c00074 	movhi	r23,1
    56a4:	00800074 	movhi	r2,1
    56a8:	108fab04 	addi	r2,r2,16044
    56ac:	bdc8de04 	addi	r23,r23,9080
    56b0:	15400017 	ldw	r21,0(r2)
    56b4:	b8c00017 	ldw	r3,0(r23)
    56b8:	00bfffc4 	movi	r2,-1
    56bc:	858d883a 	add	r6,r16,r22
    56c0:	8d6b883a 	add	r21,r17,r21
    56c4:	1880ea26 	beq	r3,r2,5a70 <_malloc_r+0x714>
    56c8:	ad4403c4 	addi	r21,r21,4111
    56cc:	00bc0004 	movi	r2,-4096
    56d0:	a8aa703a 	and	r21,r21,r2
    56d4:	a80b883a 	mov	r5,r21
    56d8:	9009883a 	mov	r4,r18
    56dc:	d9800015 	stw	r6,0(sp)
    56e0:	0006fe80 	call	6fe8 <_sbrk_r>
    56e4:	1029883a 	mov	r20,r2
    56e8:	00bfffc4 	movi	r2,-1
    56ec:	d9800017 	ldw	r6,0(sp)
    56f0:	a080e826 	beq	r20,r2,5a94 <_malloc_r+0x738>
    56f4:	a180a636 	bltu	r20,r6,5990 <_malloc_r+0x634>
    56f8:	07000074 	movhi	fp,1
    56fc:	e70fb404 	addi	fp,fp,16080
    5700:	e0800017 	ldw	r2,0(fp)
    5704:	a887883a 	add	r3,r21,r2
    5708:	e0c00015 	stw	r3,0(fp)
    570c:	3500e626 	beq	r6,r20,5aa8 <_malloc_r+0x74c>
    5710:	b9000017 	ldw	r4,0(r23)
    5714:	00bfffc4 	movi	r2,-1
    5718:	2080ee26 	beq	r4,r2,5ad4 <_malloc_r+0x778>
    571c:	a185c83a 	sub	r2,r20,r6
    5720:	10c5883a 	add	r2,r2,r3
    5724:	e0800015 	stw	r2,0(fp)
    5728:	a0c001cc 	andi	r3,r20,7
    572c:	1800bc26 	beq	r3,zero,5a20 <_malloc_r+0x6c4>
    5730:	a0e9c83a 	sub	r20,r20,r3
    5734:	00840204 	movi	r2,4104
    5738:	a5000204 	addi	r20,r20,8
    573c:	10c7c83a 	sub	r3,r2,r3
    5740:	a545883a 	add	r2,r20,r21
    5744:	1083ffcc 	andi	r2,r2,4095
    5748:	18abc83a 	sub	r21,r3,r2
    574c:	a80b883a 	mov	r5,r21
    5750:	9009883a 	mov	r4,r18
    5754:	0006fe80 	call	6fe8 <_sbrk_r>
    5758:	00ffffc4 	movi	r3,-1
    575c:	10c0e126 	beq	r2,r3,5ae4 <_malloc_r+0x788>
    5760:	1505c83a 	sub	r2,r2,r20
    5764:	1545883a 	add	r2,r2,r21
    5768:	10800054 	ori	r2,r2,1
    576c:	e0c00017 	ldw	r3,0(fp)
    5770:	9d000215 	stw	r20,8(r19)
    5774:	a0800115 	stw	r2,4(r20)
    5778:	a8c7883a 	add	r3,r21,r3
    577c:	e0c00015 	stw	r3,0(fp)
    5780:	84c00e26 	beq	r16,r19,57bc <_malloc_r+0x460>
    5784:	018003c4 	movi	r6,15
    5788:	3580a72e 	bgeu	r6,r22,5a28 <_malloc_r+0x6cc>
    578c:	81400117 	ldw	r5,4(r16)
    5790:	013ffe04 	movi	r4,-8
    5794:	b0bffd04 	addi	r2,r22,-12
    5798:	1104703a 	and	r2,r2,r4
    579c:	2900004c 	andi	r4,r5,1
    57a0:	2088b03a 	or	r4,r4,r2
    57a4:	81000115 	stw	r4,4(r16)
    57a8:	01400144 	movi	r5,5
    57ac:	8089883a 	add	r4,r16,r2
    57b0:	21400115 	stw	r5,4(r4)
    57b4:	21400215 	stw	r5,8(r4)
    57b8:	3080cd36 	bltu	r6,r2,5af0 <_malloc_r+0x794>
    57bc:	00800074 	movhi	r2,1
    57c0:	108faa04 	addi	r2,r2,16040
    57c4:	11000017 	ldw	r4,0(r2)
    57c8:	20c0012e 	bgeu	r4,r3,57d0 <_malloc_r+0x474>
    57cc:	10c00015 	stw	r3,0(r2)
    57d0:	00800074 	movhi	r2,1
    57d4:	108fa904 	addi	r2,r2,16036
    57d8:	11000017 	ldw	r4,0(r2)
    57dc:	9c000217 	ldw	r16,8(r19)
    57e0:	20c0012e 	bgeu	r4,r3,57e8 <_malloc_r+0x48c>
    57e4:	10c00015 	stw	r3,0(r2)
    57e8:	80c00117 	ldw	r3,4(r16)
    57ec:	00bfff04 	movi	r2,-4
    57f0:	1886703a 	and	r3,r3,r2
    57f4:	1c45c83a 	sub	r2,r3,r17
    57f8:	1c400236 	bltu	r3,r17,5804 <_malloc_r+0x4a8>
    57fc:	00c003c4 	movi	r3,15
    5800:	18800416 	blt	r3,r2,5814 <_malloc_r+0x4b8>
    5804:	9009883a 	mov	r4,r18
    5808:	000dac40 	call	dac4 <__malloc_unlock>
    580c:	0005883a 	mov	r2,zero
    5810:	003f7b06 	br	5600 <_gp+0xfffeb294>
    5814:	88c00054 	ori	r3,r17,1
    5818:	80c00115 	stw	r3,4(r16)
    581c:	8463883a 	add	r17,r16,r17
    5820:	10800054 	ori	r2,r2,1
    5824:	9c400215 	stw	r17,8(r19)
    5828:	88800115 	stw	r2,4(r17)
    582c:	9009883a 	mov	r4,r18
    5830:	000dac40 	call	dac4 <__malloc_unlock>
    5834:	80800204 	addi	r2,r16,8
    5838:	003f7106 	br	5600 <_gp+0xfffeb294>
    583c:	00c00504 	movi	r3,20
    5840:	18804a2e 	bgeu	r3,r2,596c <_malloc_r+0x610>
    5844:	00c01504 	movi	r3,84
    5848:	18806e36 	bltu	r3,r2,5a04 <_malloc_r+0x6a8>
    584c:	8804d33a 	srli	r2,r17,12
    5850:	12001bc4 	addi	r8,r2,111
    5854:	11c01b84 	addi	r7,r2,110
    5858:	4209883a 	add	r4,r8,r8
    585c:	003edd06 	br	53d4 <_gp+0xfffeb068>
    5860:	3804d27a 	srli	r2,r7,9
    5864:	00c00104 	movi	r3,4
    5868:	1880442e 	bgeu	r3,r2,597c <_malloc_r+0x620>
    586c:	00c00504 	movi	r3,20
    5870:	18808136 	bltu	r3,r2,5a78 <_malloc_r+0x71c>
    5874:	11401704 	addi	r5,r2,92
    5878:	10c016c4 	addi	r3,r2,91
    587c:	294b883a 	add	r5,r5,r5
    5880:	294b883a 	add	r5,r5,r5
    5884:	294b883a 	add	r5,r5,r5
    5888:	994b883a 	add	r5,r19,r5
